
SSD_EMU.elf:     file format elf32-littlenios2
SSD_EMU.elf
architecture: nios2, flags 0x00000112:
EXEC_P, HAS_SYMS, D_PAGED
start address 0x040201b4

Program Header:
    LOAD off    0x00001000 vaddr 0x04020000 paddr 0x04020000 align 2**12
         filesz 0x00000020 memsz 0x00000020 flags r-x
    LOAD off    0x00001020 vaddr 0x04020020 paddr 0x04020020 align 2**12
         filesz 0x0000dbdc memsz 0x0000dbdc flags r-x
    LOAD off    0x0000ebfc vaddr 0x0402dbfc paddr 0x0402f5d4 align 2**12
         filesz 0x000019d8 memsz 0x000019d8 flags rw-
    LOAD off    0x00010fac vaddr 0x04030fac paddr 0x04030fac align 2**12
         filesz 0x00000000 memsz 0x00000668 flags rw-

Sections:
Idx Name          Size      VMA       LMA       File off  Algn
  0 .entry        00000020  04020000  04020000  00001000  2**5
                  CONTENTS, ALLOC, LOAD, READONLY, CODE
  1 .exceptions   00000194  04020020  04020020  00001020  2**2
                  CONTENTS, ALLOC, LOAD, READONLY, CODE
  2 .text         0000d090  040201b4  040201b4  000011b4  2**2
                  CONTENTS, ALLOC, LOAD, READONLY, CODE
  3 .rodata       000009b8  0402d244  0402d244  0000e244  2**2
                  CONTENTS, ALLOC, LOAD, READONLY, DATA
  4 .rwdata       000019d8  0402dbfc  0402f5d4  0000ebfc  2**2
                  CONTENTS, ALLOC, LOAD, DATA, SMALL_DATA
  5 .bss          00000668  04030fac  04030fac  00010fac  2**2
                  ALLOC, SMALL_DATA
  6 .comment      00000023  00000000  00000000  000105d4  2**0
                  CONTENTS, READONLY
  7 .debug_aranges 000009b8  00000000  00000000  000105f8  2**3
                  CONTENTS, READONLY, DEBUGGING
  8 .debug_pubnames 000017eb  00000000  00000000  00010fb0  2**0
                  CONTENTS, READONLY, DEBUGGING
  9 .debug_info   00016d88  00000000  00000000  0001279b  2**0
                  CONTENTS, READONLY, DEBUGGING
 10 .debug_abbrev 00005911  00000000  00000000  00029523  2**0
                  CONTENTS, READONLY, DEBUGGING
 11 .debug_line   0000f1a3  00000000  00000000  0002ee34  2**0
                  CONTENTS, READONLY, DEBUGGING
 12 .debug_frame  00001664  00000000  00000000  0003dfd8  2**2
                  CONTENTS, READONLY, DEBUGGING
 13 .debug_str    00001f9f  00000000  00000000  0003f63c  2**0
                  CONTENTS, READONLY, DEBUGGING
 14 .debug_loc    000045b9  00000000  00000000  000415db  2**0
                  CONTENTS, READONLY, DEBUGGING
 15 .debug_alt_sim_info 00000060  00000000  00000000  00045b94  2**2
                  CONTENTS, READONLY, DEBUGGING
 16 .debug_ranges 00001458  00000000  00000000  00045bf8  2**3
                  CONTENTS, READONLY, DEBUGGING
 17 .thread_model 00000003  00000000  00000000  0004a709  2**0
                  CONTENTS, READONLY
 18 .cpu          0000000c  00000000  00000000  0004a70c  2**0
                  CONTENTS, READONLY
 19 .qsys         00000001  00000000  00000000  0004a718  2**0
                  CONTENTS, READONLY
 20 .simulation_enabled 00000001  00000000  00000000  0004a719  2**0
                  CONTENTS, READONLY
 21 .sysid_hash   00000004  00000000  00000000  0004a71a  2**0
                  CONTENTS, READONLY
 22 .sysid_base   00000004  00000000  00000000  0004a71e  2**0
                  CONTENTS, READONLY
 23 .sysid_time   00000004  00000000  00000000  0004a722  2**0
                  CONTENTS, READONLY
 24 .stderr_dev   0000000b  00000000  00000000  0004a726  2**0
                  CONTENTS, READONLY
 25 .stdin_dev    0000000b  00000000  00000000  0004a731  2**0
                  CONTENTS, READONLY
 26 .stdout_dev   0000000b  00000000  00000000  0004a73c  2**0
                  CONTENTS, READONLY
 27 .sopc_system_name 00000006  00000000  00000000  0004a747  2**0
                  CONTENTS, READONLY
 28 .quartus_project_dir 0000002d  00000000  00000000  0004a74d  2**0
                  CONTENTS, READONLY
 29 .jdi          00023bf0  00000000  00000000  0004a77a  2**0
                  CONTENTS, READONLY
SYMBOL TABLE:
04020000 l    d  .entry	00000000 .entry
04020020 l    d  .exceptions	00000000 .exceptions
040201b4 l    d  .text	00000000 .text
0402d244 l    d  .rodata	00000000 .rodata
0402dbfc l    d  .rwdata	00000000 .rwdata
04030fac l    d  .bss	00000000 .bss
00000000 l    d  .comment	00000000 .comment
00000000 l    d  .debug_aranges	00000000 .debug_aranges
00000000 l    d  .debug_pubnames	00000000 .debug_pubnames
00000000 l    d  .debug_info	00000000 .debug_info
00000000 l    d  .debug_abbrev	00000000 .debug_abbrev
00000000 l    d  .debug_line	00000000 .debug_line
00000000 l    d  .debug_frame	00000000 .debug_frame
00000000 l    d  .debug_str	00000000 .debug_str
00000000 l    d  .debug_loc	00000000 .debug_loc
00000000 l    d  .debug_alt_sim_info	00000000 .debug_alt_sim_info
00000000 l    d  .debug_ranges	00000000 .debug_ranges
040201fc l       .text	00000000 alt_after_alt_main
00000000 l    df *ABS*	00000000 alt_irq_handler.c
00000000 l    df *ABS*	00000000 DES.c
0402d50c l     O .rodata	00000038 map8to7.1507
0402d244 l     O .rodata	00000038 KeyPermuteMap
0402d27c l     O .rodata	00000010 KeyRotation
0402d28c l     O .rodata	00000030 KeyCompression
0402d2bc l     O .rodata	00000030 DataExpansion
0402d30c l     O .rodata	00000200 SBox
0402d2ec l     O .rodata	00000020 PBox
00000000 l    df *ABS*	00000000 aes.c
00000000 l    df *ABS*	00000000 cpu_energy_test.c
00000000 l    df *ABS*	00000000 main.c
00000000 l    df *ABS*	00000000 power_spi.c
00000000 l    df *ABS*	00000000 fp-bit.c
00000000 l    df *ABS*	00000000 fp-bit.c
00000000 l    df *ABS*	00000000 fp-bit.c
00000000 l    df *ABS*	00000000 fp-bit.c
00000000 l    df *ABS*	00000000 fp-bit.c
00000000 l    df *ABS*	00000000 fp-bit.c
00000000 l    df *ABS*	00000000 dp-bit.c
00000000 l    df *ABS*	00000000 lib2-divmod.c
04026558 l     F .text	0000007c udivmodsi4
00000000 l    df *ABS*	00000000 lib2-divtable.c
00000000 l    df *ABS*	00000000 libgcc2.c
00000000 l    df *ABS*	00000000 fp-bit.c
00000000 l    df *ABS*	00000000 fp-bit.c
00000000 l    df *ABS*	00000000 dp-bit.c
00000000 l    df *ABS*	00000000 libgcc2.c
00000000 l    df *ABS*	00000000 malloc.c
00000000 l    df *ABS*	00000000 mallocr.c
00000000 l    df *ABS*	00000000 memcpy.c
00000000 l    df *ABS*	00000000 memset.c
00000000 l    df *ABS*	00000000 printf.c
00000000 l    df *ABS*	00000000 putchar.c
00000000 l    df *ABS*	00000000 puts.c
00000000 l    df *ABS*	00000000 sbrkr.c
00000000 l    df *ABS*	00000000 strlen.c
00000000 l    df *ABS*	00000000 vfprintf.c
04027604 l     F .text	00000080 print_repeat
00000000 l    df *ABS*	00000000 mallocr.c
00000000 l    df *ABS*	00000000 fvwrite_small_dev.c
00000000 l    df *ABS*	00000000 impure.c
0402e1a4 l     O .rwdata	000000e0 impure_data
00000000 l    df *ABS*	00000000 int_errno.c
00000000 l    df *ABS*	00000000 putc.c
00000000 l    df *ABS*	00000000 writer.c
00000000 l    df *ABS*	00000000 alt_flash_dev.c
00000000 l    df *ABS*	00000000 alt_load.c
04028424 l     F .text	0000006c alt_load_section
00000000 l    df *ABS*	00000000 alt_main.c
00000000 l    df *ABS*	00000000 alt_malloc_lock.c
00000000 l    df *ABS*	00000000 alt_sbrk.c
0402f5ac l     O .rwdata	00000004 heap_end
00000000 l    df *ABS*	00000000 alt_usleep.c
00000000 l    df *ABS*	00000000 alt_write.c
04028738 l     F .text	00000060 alt_get_errno
00000000 l    df *ABS*	00000000 alt_sys_init.c
0402e284 l     O .rwdata	000000d8 cfi_flash_0
0402e35c l     O .rwdata	00001060 jtag_uart_0
0402885c l     F .text	00000038 alt_dev_reg
00000000 l    df *ABS*	00000000 altera_avalon_cfi_flash.c
04028930 l     F .text	00000038 alt_flash_device_register
00000000 l    df *ABS*	00000000 altera_avalon_cfi_flash_table.c
04029720 l     F .text	0000007c alt_read_16bit_query_entry
00000000 l    df *ABS*	00000000 altera_avalon_jtag_uart_fd.c
00000000 l    df *ABS*	00000000 altera_avalon_jtag_uart_init.c
0402a7ac l     F .text	00000228 altera_avalon_jtag_uart_irq
0402a9d4 l     F .text	000000b0 altera_avalon_jtag_uart_timeout
00000000 l    df *ABS*	00000000 altera_avalon_jtag_uart_ioctl.c
00000000 l    df *ABS*	00000000 altera_avalon_jtag_uart_read.c
00000000 l    df *ABS*	00000000 altera_avalon_jtag_uart_write.c
00000000 l    df *ABS*	00000000 altera_avalon_spi.c
00000000 l    df *ABS*	00000000 altera_avalon_timer_sc.c
0402b288 l     F .text	00000070 alt_avalon_timer_sc_irq
00000000 l    df *ABS*	00000000 altera_avalon_timer_ts.c
00000000 l    df *ABS*	00000000 altera_avalon_timer_vars.c
00000000 l    df *ABS*	00000000 alt_alarm_start.c
00000000 l    df *ABS*	00000000 alt_busy_sleep.c
00000000 l    df *ABS*	00000000 alt_close.c
0402b88c l     F .text	00000060 alt_get_errno
00000000 l    df *ABS*	00000000 alt_dcache_flush.c
00000000 l    df *ABS*	00000000 alt_dcache_flush_all.c
00000000 l    df *ABS*	00000000 alt_dev.c
0402b9a8 l     F .text	0000002c alt_dev_null_write
00000000 l    df *ABS*	00000000 alt_dev_llist_insert.c
0402ba88 l     F .text	00000060 alt_get_errno
00000000 l    df *ABS*	00000000 alt_errno.c
00000000 l    df *ABS*	00000000 alt_find_dev.c
00000000 l    df *ABS*	00000000 alt_icache_flush_all.c
00000000 l    df *ABS*	00000000 alt_iic.c
00000000 l    df *ABS*	00000000 alt_iic_isr_register.c
00000000 l    df *ABS*	00000000 alt_io_redirect.c
0402be78 l     F .text	000000c4 alt_open_fd
00000000 l    df *ABS*	00000000 alt_irq_vars.c
00000000 l    df *ABS*	00000000 alt_open.c
0402bfb4 l     F .text	000000dc alt_file_locked
0402c218 l     F .text	00000060 alt_get_errno
00000000 l    df *ABS*	00000000 alt_release_fd.c
00000000 l    df *ABS*	00000000 alt_tick.c
00000000 l    df *ABS*	00000000 altera_nios2_qsys_irq.c
00000000 l    df *ABS*	00000000 altera_avalon_cfi_flash_amd.c
0402c840 l     F .text	000000bc alt_write_word_amd
0402c71c l     F .text	00000124 alt_wait_for_command_to_complete_amd
00000000 l    df *ABS*	00000000 altera_avalon_cfi_flash_intel.c
0402caf4 l     F .text	0000018c alt_unlock_block_intel
0402cc80 l     F .text	000000dc alt_write_word_intel
00000000 l    df *ABS*	00000000 alt_find_file.c
00000000 l    df *ABS*	00000000 alt_get_fd.c
00000000 l    df *ABS*	00000000 alt_icache_flush.c
00000000 l    df *ABS*	00000000 exit.c
00000000 l    df *ABS*	00000000 memcmp.c
00000000 l    df *ABS*	00000000 __call_atexit.c
0402d020 l     F .text	00000004 register_fini
00000000 l    df *ABS*	00000000 alt_exit.c
0402d1e0 l     F .text	00000040 alt_sim_halt
040274ac g     F .text	0000001c putchar
04022af0 g     F .text	000000ac aes_shiftrows
04028490 g     F .text	0000005c alt_main
040274d0 g     F .text	00000090 _puts_r
040291e0 g     F .text	00000048 alt_read_query_entry_32bit
04031514 g     O .bss	00000100 alt_irq
04028968 g     F .text	000002c0 alt_flash_cfi_write
0402f5d4 g       *ABS*	00000000 __flash_rwdata_start
04024854 g     F .text	00000738 fir_testbench
04031614 g       *ABS*	00000000 __alt_heap_start
04027414 g     F .text	00000054 printf
0402f564 g     O .rwdata	00000008 b
040256c4 g     F .text	00000008 reset_power_tick
04030fb4 g     O .bss	00000004 t_sch_rd_end
0402850c g     F .text	00000020 __malloc_unlock
04030fb8 g     O .bss	00000004 t_ci_run_end
04030fbc g     O .bss	00000004 t_spi_xmit_end
04030fc0 g     O .bss	00000004 o1
04026204 g     F .text	00000174 __divsf3
0403109c g     O .bss	00000004 altera_avalon_timer_ts_freq
04026378 g     F .text	00000094 __fixsfsi
0402411c g     F .text	000002e8 aes_alloc_ctx
00000000  w      *UND*	00000000 __errno
0402936c g     F .text	00000048 alt_write_flash_command_32bit_device_16bit_mode
04020000 g     F .entry	0000001c __reset
04030fc4 g     O .bss	00000004 t_sch_cfg_end
04021064 g     F .text	000001e8 aes_addroundkey
04020020 g       *ABS*	00000000 __flash_exceptions_start
04028e84 g     F .text	000002d8 alt_flash_program_block
040314e4 g     O .bss	00000010 mbc_header
04031088 g     O .bss	00000004 errno
04026520 g     F .text	00000038 __make_dp
04030fc8 g     O .bss	00000004 t_fl_open_begin
04030fcc g     O .bss	00000004 t_lut_cfg
04031090 g     O .bss	00000004 alt_argv
04037564 g       *ABS*	00000000 _gp
040285e8 g     F .text	00000030 usleep
0402124c g     F .text	0000010c aes_invsubbytes
0402f3e4 g     O .rwdata	00000180 alt_fd_list
04030fd0 g     O .bss	00000004 t_lut_rd
040274c8 g     F .text	00000008 _putchar_r
0402bae8 g     F .text	00000094 alt_find_dev
04020f58 g     F .text	0000010c aes_subbytes
040273c8 g     F .text	0000002c memcpy
04030fd4 g     O .bss	00000004 t_fl_open_end
04024f8c g     F .text	0000025c aes_testbench
04030fd8 g     O .bss	00000004 t_fl_rd_kh_end
04030fdc g     O .bss	00000004 t_lut_cfg_begin
0402bf3c g     F .text	00000078 alt_io_redirect
04020f08 g     F .text	00000050 aes_mul_manual
04027560 g     F .text	00000014 puts
04030fe0 g     O .bss	00000004 t_des_run
0402f56c g     O .rwdata	00000008 g
0402abec g     F .text	00000224 altera_avalon_jtag_uart_read
04026c74 g     F .text	00000014 malloc
04027468 g     F .text	00000044 _printf_r
04020000 g       *ABS*	00000000 __alt_mem_onchip_memory2_0
04026694 g     F .text	00000008 __udivsi3
04030fe4 g     O .bss	00000004 t_hdr_parse_end
04024404 g     F .text	00000038 csleep
0402cf34 g     F .text	00000090 alt_icache_flush
0403107c g     O .bss	00000004 __malloc_top_pad
04030fe8 g     O .bss	00000004 t_fir_run_begin
04023718 g     F .text	00000a04 aes_decrypt
04030fec g     O .bss	00000004 t_mbc_cfg_begin
04027574 g     F .text	00000070 _sbrk_r
0402c8fc g     F .text	00000084 alt_program_intel
04020ca8 g     F .text	00000260 aes_keyexpansion
04030fac g     O .bss	00000008 dst
040251e8 g     F .text	00000060 spi_tx_char
0402b8ec g     F .text	00000078 alt_dcache_flush
04030ff0 g     O .bss	00000004 t_fl_rd_kh
0402f5c0 g     O .rwdata	00000004 alt_max_fd
0402915c g     F .text	00000040 alt_read_query_entry_8bit
0402c980 g     F .text	00000174 alt_erase_block_intel
04031080 g     O .bss	00000004 __malloc_max_sbrked_mem
0402640c g     F .text	00000054 __extendsfdf2
04030ff4 g     O .bss	00000004 t_spi_xmit_begin
0402443c g     F .text	00000054 spi_pow_testbench
0402f5a0 g     O .rwdata	00000004 _global_impure_ptr
04031614 g       *ABS*	00000000 __bss_end
0402bd80 g     F .text	000000f8 alt_iic_isr_register
0402c370 g     F .text	0000010c alt_tick
040246f4 g     F .text	00000160 des_testbench
04030ff8 g     O .bss	00000004 t_hdr_parse_begin
0402032c g     F .text	00000900 auth_DEShash
04025b94 g     F .text	000004a8 measure_power
0402bd38 g     F .text	00000048 alt_ic_irq_enabled
0402c2d8 g     F .text	00000098 alt_alarm_stop
040310a0 g     O .bss	00000004 alt_irq_active
04030ffc g     O .bss	00000004 t_init
040310e4 g     O .bss	00000100 g_aes_ilogt
04031000 g     O .bss	00000004 t_hdr_parse
040200ec g     F .exceptions	000000c8 alt_irq_handler
0402f3bc g     O .rwdata	00000028 alt_dev_null
04031004 g     O .bss	00000004 t_mbc_run_end
04026884 g     F .text	000000c8 __unpack_f
04029674 g     F .text	000000ac alt_set_flash_algorithm_func
0402b964 g     F .text	00000044 alt_dcache_flush_all
04021b5c g     F .text	000000ac aes_invshiftrows
0402f574 g     O .rwdata	00000008 r
04029228 g     F .text	0000003c alt_write_flash_command_8bit_device_8bit_mode
0402f5d4 g       *ABS*	00000000 __ram_rwdata_end
0402f5b8 g     O .rwdata	00000008 alt_dev_list
04028618 g     F .text	00000120 write
040281e8 g     F .text	00000074 _putc_r
0402b4c8 g     F .text	00000028 alt_timestamp_freq
0402dbfc g       *ABS*	00000000 __ram_rodata_end
04031008 g     O .bss	00000004 t_aes_run_end
0402a4c8 g     F .text	000000dc alt_check_primary_table
0402669c g     F .text	00000008 __umodsi3
04028cb8 g     F .text	00000068 alt_flash_cfi_read
040293fc g     F .text	00000034 alt_write_native_8bit
04031614 g       *ABS*	00000000 end
04026724 g     F .text	00000160 __pack_f
04029264 g     F .text	0000007c alt_write_flash_command_16bit_device_8bit_mode
0402979c g     F .text	00000580 alt_read_cfi_table
0402a6ec g     F .text	000000c0 altera_avalon_jtag_uart_init
04038000 g       *ABS*	00000000 __alt_stack_pointer
0402b2f8 g     F .text	00000090 alt_avalon_timer_sc_init
040266a4 g     F .text	00000080 __clzsi2
0402ae10 g     F .text	00000240 altera_avalon_jtag_uart_write
04020c88 g     F .text	00000020 aes_rotword
04028894 g     F .text	0000009c alt_flash_cfi_init
04027684 g     F .text	000005d4 ___vfprintf_internal_r
00000000 g       *ABS*	00000000 __alt_mem_cfi_flash_0
04027da8 g     F .text	00000314 _free_r
0402d024 g     F .text	000001bc __call_exitprocs
0402f598 g     O .rwdata	00000004 __malloc_sbrk_base
040201b4 g     F .text	0000004c _start
040310a4 g     O .bss	00000004 _alt_tick_rate
0402b050 g     F .text	00000238 alt_avalon_spi_command
040310a8 g     O .bss	00000004 _alt_nticks
040287cc g     F .text	00000090 alt_sys_init
0403100c g     O .bss	00000004 t_sch_cfg_begin
04021358 g     F .text	00000004 aes_free_ctx
0402919c g     F .text	00000044 alt_read_query_entry_16bit
0402aa84 g     F .text	00000074 altera_avalon_jtag_uart_close
0402dbfc g       *ABS*	00000000 __ram_rwdata_start
0402d244 g       *ABS*	00000000 __ram_rodata_start
040310bc g     O .bss	00000028 __malloc_current_mallinfo
04029494 g     F .text	000001e0 alt_set_flash_width_func
04031010 g     O .bss	00000004 t_fir_run
04031014 g     O .bss	00000004 t_fl_rd_kids_end
04020200 g     F .text	0000012c auth_DESkey8to7
0402a5a4 g     F .text	00000058 altera_avalon_jtag_uart_read_fd
0402ce7c g     F .text	000000b8 alt_get_fd
0402b644 g     F .text	0000014c alt_busy_sleep
0402c504 g     F .text	00000218 alt_erase_block_amd
0402cfe4 g     F .text	0000003c memcmp
0402a654 g     F .text	00000048 altera_avalon_jtag_uart_close_fd
04031614 g       *ABS*	00000000 __alt_stack_base
040314f4 g     O .bss	00000010 ctext
0402a69c g     F .text	00000050 altera_avalon_jtag_uart_ioctl_fd
040311e4 g     O .bss	00000100 g_aes_isbox
04029d1c g     F .text	000007ac alt_read_cfi_width
04031078 g     O .bss	00000004 tick
0402dd9c g     O .rwdata	00000408 __malloc_av_
04031018 g     O .bss	00000004 t_lut_rd_begin
0402daa4 g     O .rodata	00000010 __thenan_sf
0402cd5c g     F .text	00000120 alt_find_file
0402b9d4 g     F .text	000000b4 alt_dev_llist_insert
040284ec g     F .text	00000020 __malloc_lock
0402852c g     F .text	000000bc sbrk
0402f5a4 g     O .rwdata	00000008 alt_flash_dev_list
040246ac g     F .text	00000048 mbc_testbench
04029328 g     F .text	00000044 alt_write_flash_command_16bit_device_16bit_mode
040280bc g     F .text	000000bc __sfvwrite_small_dev
0402dc9c g     O .rwdata	00000100 __divsi3_table
04030fac g       *ABS*	00000000 __bss_start
0402f58d g     O .rwdata	00000004 data
040273f4 g     F .text	00000020 memset
04025248 g     F .text	0000047c main
0403101c g     O .bss	00000004 t_ci_run
04031094 g     O .bss	00000004 alt_envp
04031084 g     O .bss	00000004 __malloc_max_total_mem
0402a5fc g     F .text	00000058 altera_avalon_jtag_uart_write_fd
04025a14 g     F .text	00000180 POWER_Read
04022b9c g     F .text	0000022c init_aes
040312e4 g     O .bss	00000100 g_aes_sbox
04038000 g       *ABS*	00000000 __alt_heap_limit
0402b388 g     F .text	000000a4 alt_timestamp_start
04026c88 g     F .text	00000740 _malloc_r
04024490 g     F .text	0000021c ci_testbench
04021c08 g     F .text	00000ee8 aes_mixcolumns
0402f5c4 g     O .rwdata	00000004 alt_errno
040256cc g     F .text	00000348 POWER_SPI_RW
040293b4 g     F .text	00000048 alt_write_flash_command_32bit_device_32bit_mode
04031020 g     O .bss	00000004 t_des_run_end
0402dbfc g     O .rwdata	00000010 key
04028d20 g     F .text	00000164 alt_write_value_to_flash
04029430 g     F .text	00000034 alt_write_native_16bit
04028178 g     F .text	00000070 putc
04031024 g     O .bss	00000004 t_fl_rd_kids
040265d4 g     F .text	00000060 __divsi3
04027c7c g     F .text	0000012c _malloc_trim_r
0402603c g     F .text	000001c8 __mulsf3
04031028 g     O .bss	00000004 t_fl_rd_kh_begin
0402d244 g       *ABS*	00000000 __flash_rodata_start
0403102c g     O .bss	00000004 o0
04028798 g     F .text	00000034 alt_irq_init
040313e4 g     O .bss	00000100 g_aes_logt
0402c278 g     F .text	00000060 alt_release_fd
0402dab4 g     O .rodata	00000100 __clz_tab
04031030 g     O .bss	00000004 t_mbc_cfg_end
0402825c g     F .text	00000078 _write_r
04031034 g     O .bss	00000004 t_lut_rd_end
0402f59c g     O .rwdata	00000004 _impure_ptr
0403108c g     O .bss	00000004 alt_argc
04031098 g     O .bss	00000004 altera_avalon_timer_ts_base
04031038 g     O .bss	00000004 t_mbc_run
0403103c g     O .bss	00000004 t_ci_run_begin
04020c2c g     F .text	0000005c aes_subword
04020020 g       .exceptions	00000000 alt_irq_entry
04031040 g     O .bss	00000004 t_sch_rd_begin
0402dc5c g     O .rwdata	00000040 in0
0402f5b0 g     O .rwdata	00000008 alt_fs_list
040292e0 g     F .text	00000048 alt_write_flash_command_32bit_device_8bit_mode
04031044 g     O .bss	00000004 t_fl_rd_kids_begin
04020020 g       *ABS*	00000000 __ram_exceptions_start
0402b42c g     F .text	0000009c alt_timestamp
04031048 g     O .bss	00000004 t_aes_run_begin
0402bbac g     F .text	00000050 alt_ic_isr_register
0402f584 g     O .rwdata	00000008 src
0402f5d4 g       *ABS*	00000000 _edata
0403104c g     O .bss	00000004 t_fir_run_end
04031614 g       *ABS*	00000000 _end
040282d4 g     F .text	0000007c alt_flash_open_dev
0402135c g     F .text	00000800 aes_invmixcolumns
04031050 g     O .bss	00000004 t_lut_cfg_end
040201b4 g       *ABS*	00000000 __ram_exceptions_end
0402aaf8 g     F .text	000000f4 altera_avalon_jtag_uart_ioctl
0402f57c g     O .rwdata	00000008 key2
0402bc98 g     F .text	000000a0 alt_ic_irq_disable
0402f594 g     O .rwdata	00000004 __malloc_trim_threshold
0402dc0c g     O .rwdata	00000010 ptext
0402c47c g     F .text	00000020 altera_nios2_qsys_irq_init
0402cfc4 g     F .text	00000020 exit
04026460 g     F .text	000000c0 __floatunsisf
04031054 g     O .bss	00000004 t_mbc_run_begin
04028350 g     F .text	00000054 alt_flash_close_dev
04031058 g     O .bss	00000004 t_fl_open
04026634 g     F .text	00000060 __modsi3
0403105c g     O .bss	00000004 t_spi_xmit
04038000 g       *ABS*	00000000 __alt_data_end
04020020 g     F .exceptions	00000000 alt_exception
04031060 g     O .bss	00000004 overhead
0402d220 g     F .text	00000020 _exit
0402b4f0 g     F .text	00000154 alt_alarm_start
04029464 g     F .text	00000030 alt_write_native_32bit
040275e4 g     F .text	00000020 strlen
04031064 g     O .bss	00000004 t_sch_cfg
0402c090 g     F .text	00000188 open
04028c28 g     F .text	00000090 alt_flash_cfi_get_info
0402bb7c g     F .text	00000030 alt_icache_flush_all
04031068 g     O .bss	00000004 t_sch_rd
0402f5c8 g     O .rwdata	00000004 alt_priority_mask
0402f58c g     O .rwdata	00000001 len
0402bbfc g     F .text	0000009c alt_ic_irq_enable
04027c58 g     F .text	00000024 __vfprintf_internal
0402dc1c g     O .rwdata	00000040 co0
0402f5cc g     O .rwdata	00000008 alt_alarm_list
040310ac g     O .bss	00000010 sum0
0402b790 g     F .text	000000fc close
0402c49c g     F .text	00000068 alt_program_amd
040283a4 g     F .text	00000080 alt_load
0402694c g     F .text	00000314 __pack_d
0403106c g     O .bss	00000004 t_aes_run
04026c60 g     F .text	00000014 free
04031504 g     O .bss	00000010 decptext
04022dc8 g     F .text	00000950 aes_encrypt
04031070 g     O .bss	00000004 t_mbc_cfg
04031074 g     O .bss	00000004 t_des_run_begin



Disassembly of section .entry:

04020000 <__reset>:
#if NIOS2_ICACHE_SIZE > 0 && defined(ALT_ALLOW_CODE_AT_RESET) && !defined(ALT_SIM_OPTIMIZE)
    /* Assume the instruction cache size is always a power of two. */
#if NIOS2_ICACHE_SIZE > 0x8000
    movhi r2, %hi(NIOS2_ICACHE_SIZE)
#else
    movui r2, NIOS2_ICACHE_SIZE
 4020000:	00840014 	movui	r2,4096
#endif

0:
    initi r2
 4020004:	1001483a 	initi	r2
    addi r2, r2, -NIOS2_ICACHE_LINE_SIZE
 4020008:	10bff804 	addi	r2,r2,-32
    bgt r2, zero, 0b
 402000c:	00bffd16 	blt	zero,r2,4020004 <__reset+0x4>
 * Jump to the _start entry point in the .text section if reset code
 * is allowed or if optimizing for RTL simulation.
 */
#if defined(ALT_ALLOW_CODE_AT_RESET) || defined(ALT_SIM_OPTIMIZE)
    /* Jump to the _start entry point in the .text section. */
    movhi r1, %hi(_start)
 4020010:	004100b4 	movhi	at,1026
    ori r1, r1, %lo(_start)
 4020014:	08406d14 	ori	at,at,436
    jmp r1
 4020018:	0800683a 	jmp	at
 402001c:	00000000 	call	0 <__alt_mem_cfi_flash_0>

Disassembly of section .exceptions:

04020020 <alt_exception>:
         * Process an exception.  For all exceptions we must preserve all
         * caller saved registers on the stack (See the Nios2 ABI
         * documentation for details).
         */

        addi  sp, sp, -76
 4020020:	deffed04 	addi	sp,sp,-76

#endif

#endif

        stw   ra,  0(sp)
 4020024:	dfc00015 	stw	ra,0(sp)
        /*
         * Leave a gap in the stack frame at 4(sp) for the muldiv handler to
         * store zero into.
         */

        stw   r1,   8(sp)
 4020028:	d8400215 	stw	at,8(sp)
        stw   r2,  12(sp)
 402002c:	d8800315 	stw	r2,12(sp)
        stw   r3,  16(sp)
 4020030:	d8c00415 	stw	r3,16(sp)
        stw   r4,  20(sp)
 4020034:	d9000515 	stw	r4,20(sp)
        stw   r5,  24(sp)
 4020038:	d9400615 	stw	r5,24(sp)
        stw   r6,  28(sp)
 402003c:	d9800715 	stw	r6,28(sp)
        stw   r7,  32(sp)
 4020040:	d9c00815 	stw	r7,32(sp)

        rdctl r5, estatus
 4020044:	000b307a 	rdctl	r5,estatus

        stw   r8,  36(sp)
 4020048:	da000915 	stw	r8,36(sp)
        stw   r9,  40(sp)
 402004c:	da400a15 	stw	r9,40(sp)
        stw   r10, 44(sp)
 4020050:	da800b15 	stw	r10,44(sp)
        stw   r11, 48(sp)
 4020054:	dac00c15 	stw	r11,48(sp)
        stw   r12, 52(sp)
 4020058:	db000d15 	stw	r12,52(sp)
        stw   r13, 56(sp)
 402005c:	db400e15 	stw	r13,56(sp)
        stw   r14, 60(sp)
 4020060:	db800f15 	stw	r14,60(sp)
        stw   r15, 64(sp)
 4020064:	dbc01015 	stw	r15,64(sp)
        /*
         * ea-4 contains the address of the instruction being executed
         * when the exception occured. For interrupt exceptions, we will
         * will be re-issue the isntruction. Store it in 72(sp)
         */
        stw   r5,  68(sp)  /* estatus */
 4020068:	d9401115 	stw	r5,68(sp)
        addi  r15, ea, -4  /* instruction that caused exception */
 402006c:	ebffff04 	addi	r15,ea,-4
        stw   r15,  72(sp)
 4020070:	dbc01215 	stw	r15,72(sp)
#else
        /*
         * Test to see if the exception was a software exception or caused 
         * by an external interrupt, and vector accordingly.
         */
        rdctl r4, ipending
 4020074:	0009313a 	rdctl	r4,ipending
        andi  r2, r5, 1
 4020078:	2880004c 	andi	r2,r5,1
        beq   r2, zero, .Lnot_irq
 402007c:	10000326 	beq	r2,zero,402008c <alt_exception+0x6c>
        beq   r4, zero, .Lnot_irq
 4020080:	20000226 	beq	r4,zero,402008c <alt_exception+0x6c>
        /*
         * Now that all necessary registers have been preserved, call 
         * alt_irq_handler() to process the interrupts.
         */

        call alt_irq_handler
 4020084:	40200ec0 	call	40200ec <alt_irq_handler>

        .section .exceptions.irqreturn, "xa"

        br    .Lexception_exit
 4020088:	00000306 	br	4020098 <alt_exception+0x78>
         * upon completion, so we write ea (address of instruction *after*
         * the one where the exception occured) into 72(sp). The actual
         * instruction that caused the exception is written in r2, which these
         * handlers will utilize.
         */
        stw   ea,  72(sp)  /* Don't re-issue */
 402008c:	df401215 	stw	ea,72(sp)
        ldw   r2, -4(ea)   /* Instruction that caused exception */
 4020090:	e8bfff17 	ldw	r2,-4(ea)
#ifdef NIOS2_HAS_DEBUG_STUB
       /*
        *  Either tell the user now (if there is a debugger attached) or go into
        *  the debug monitor which will loop until a debugger is attached.
        */
        break
 4020094:	003da03a 	break	0
        /* 
         * Restore the saved registers, so that all general purpose registers 
         * have been restored to their state at the time the interrupt occured.
         */

        ldw   r5,  68(sp)
 4020098:	d9401117 	ldw	r5,68(sp)
        ldw   ea,  72(sp)  /* This becomes the PC once eret is executed */
 402009c:	df401217 	ldw	ea,72(sp)
        ldw   ra,   0(sp)
 40200a0:	dfc00017 	ldw	ra,0(sp)

        wrctl estatus, r5
 40200a4:	2801707a 	wrctl	estatus,r5

        ldw   r1,   8(sp)
 40200a8:	d8400217 	ldw	at,8(sp)
        ldw   r2,  12(sp)
 40200ac:	d8800317 	ldw	r2,12(sp)
        ldw   r3,  16(sp)
 40200b0:	d8c00417 	ldw	r3,16(sp)
        ldw   r4,  20(sp)
 40200b4:	d9000517 	ldw	r4,20(sp)
        ldw   r5,  24(sp)
 40200b8:	d9400617 	ldw	r5,24(sp)
        ldw   r6,  28(sp)
 40200bc:	d9800717 	ldw	r6,28(sp)
        ldw   r7,  32(sp)
 40200c0:	d9c00817 	ldw	r7,32(sp)
#ifdef ALT_STACK_CHECK
        ldw   et, %gprel(alt_exception_old_stack_limit)(gp)
#endif
#endif

        ldw   r8,  36(sp)
 40200c4:	da000917 	ldw	r8,36(sp)
        ldw   r9,  40(sp)
 40200c8:	da400a17 	ldw	r9,40(sp)
        ldw   r10, 44(sp)
 40200cc:	da800b17 	ldw	r10,44(sp)
        ldw   r11, 48(sp)
 40200d0:	dac00c17 	ldw	r11,48(sp)
        ldw   r12, 52(sp)
 40200d4:	db000d17 	ldw	r12,52(sp)
        ldw   r13, 56(sp)
 40200d8:	db400e17 	ldw	r13,56(sp)
        ldw   r14, 60(sp)
 40200dc:	db800f17 	ldw	r14,60(sp)
        ldw   r15, 64(sp)
 40200e0:	dbc01017 	ldw	r15,64(sp)
#endif

        ldw   sp,  76(sp)

#else
        addi  sp, sp, 76
 40200e4:	dec01304 	addi	sp,sp,76

        /*
         * Return to the interrupted instruction.
         */

        eret
 40200e8:	ef80083a 	eret

040200ec <alt_irq_handler>:
 * instruction is present if the macro ALT_CI_INTERRUPT_VECTOR defined.
 */

void alt_irq_handler (void) __attribute__ ((section (".exceptions")));
void alt_irq_handler (void)
{
 40200ec:	defff904 	addi	sp,sp,-28
 40200f0:	dfc00615 	stw	ra,24(sp)
 40200f4:	df000515 	stw	fp,20(sp)
 40200f8:	df000504 	addi	fp,sp,20
#ifndef NIOS2_EIC_PRESENT
static ALT_INLINE alt_u32 ALT_ALWAYS_INLINE alt_irq_pending (void)
{
  alt_u32 active;

  NIOS2_READ_IPENDING (active);
 40200fc:	0005313a 	rdctl	r2,ipending
 4020100:	e0bffc15 	stw	r2,-16(fp)

  return active;
 4020104:	e0bffc17 	ldw	r2,-16(fp)
   * Consider the case where the high priority interupt is asserted during
   * the interrupt entry sequence for a lower priority interrupt to see why
   * this is the case.
   */

  active = alt_irq_pending ();
 4020108:	e0bfff15 	stw	r2,-4(fp)

  do
  {
    i = 0;
 402010c:	e03ffd15 	stw	zero,-12(fp)
    mask = 1;
 4020110:	00800044 	movi	r2,1
 4020114:	e0bffe15 	stw	r2,-8(fp)
     * called to clear the interrupt condition.
     */

    do
    {
      if (active & mask)
 4020118:	e0ffff17 	ldw	r3,-4(fp)
 402011c:	e0bffe17 	ldw	r2,-8(fp)
 4020120:	1884703a 	and	r2,r3,r2
 4020124:	1005003a 	cmpeq	r2,r2,zero
 4020128:	1000161e 	bne	r2,zero,4020184 <alt_irq_handler+0x98>
      { 
#ifdef ALT_ENHANCED_INTERRUPT_API_PRESENT
        alt_irq[i].handler(alt_irq[i].context); 
 402012c:	e0bffd17 	ldw	r2,-12(fp)
 4020130:	00c100f4 	movhi	r3,1027
 4020134:	18c54504 	addi	r3,r3,5396
 4020138:	100490fa 	slli	r2,r2,3
 402013c:	10c5883a 	add	r2,r2,r3
 4020140:	11400017 	ldw	r5,0(r2)
 4020144:	e0bffd17 	ldw	r2,-12(fp)
 4020148:	00c100f4 	movhi	r3,1027
 402014c:	18c54504 	addi	r3,r3,5396
 4020150:	100490fa 	slli	r2,r2,3
 4020154:	10c5883a 	add	r2,r2,r3
 4020158:	10800104 	addi	r2,r2,4
 402015c:	11000017 	ldw	r4,0(r2)
 4020160:	283ee83a 	callr	r5
#ifndef NIOS2_EIC_PRESENT
static ALT_INLINE alt_u32 ALT_ALWAYS_INLINE alt_irq_pending (void)
{
  alt_u32 active;

  NIOS2_READ_IPENDING (active);
 4020164:	0005313a 	rdctl	r2,ipending
 4020168:	e0bffb15 	stw	r2,-20(fp)

  return active;
 402016c:	e0bffb17 	ldw	r2,-20(fp)
      mask <<= 1;
      i++;

    } while (1);

    active = alt_irq_pending ();
 4020170:	e0bfff15 	stw	r2,-4(fp)
    
  } while (active);
 4020174:	e0bfff17 	ldw	r2,-4(fp)
 4020178:	1004c03a 	cmpne	r2,r2,zero
 402017c:	103fe31e 	bne	r2,zero,402010c <alt_irq_handler+0x20>
 4020180:	00000706 	br	40201a0 <alt_irq_handler+0xb4>
#else
        alt_irq[i].handler(alt_irq[i].context, i); 
#endif
        break;
      }
      mask <<= 1;
 4020184:	e0bffe17 	ldw	r2,-8(fp)
 4020188:	1085883a 	add	r2,r2,r2
 402018c:	e0bffe15 	stw	r2,-8(fp)
      i++;
 4020190:	e0bffd17 	ldw	r2,-12(fp)
 4020194:	10800044 	addi	r2,r2,1
 4020198:	e0bffd15 	stw	r2,-12(fp)

    } while (1);
 402019c:	003fde06 	br	4020118 <alt_irq_handler+0x2c>
  /*
   * Notify the operating system that interrupt processing is complete.
   */ 

  ALT_OS_INT_EXIT();
}
 40201a0:	e037883a 	mov	sp,fp
 40201a4:	dfc00117 	ldw	ra,4(sp)
 40201a8:	df000017 	ldw	fp,0(sp)
 40201ac:	dec00204 	addi	sp,sp,8
 40201b0:	f800283a 	ret

Disassembly of section .text:

040201b4 <_start>:

    /* Assume the data cache size is always a power of two. */
#if NIOS2_DCACHE_SIZE > 0x8000
    movhi r2, %hi(NIOS2_DCACHE_SIZE)
#else
    movui r2, NIOS2_DCACHE_SIZE
 40201b4:	00820014 	movui	r2,2048
#endif

0:
    initd 0(r2)
 40201b8:	10000033 	initd	0(r2)
    addi r2, r2, -NIOS2_DCACHE_LINE_SIZE
 40201bc:	10bff804 	addi	r2,r2,-32
    bgt r2, zero, 0b
 40201c0:	00bffd16 	blt	zero,r2,40201b8 <_start+0x4>
#if (NIOS2_NUM_OF_SHADOW_REG_SETS == 0)    
    /*
     * Now that the caches are initialized, set up the stack pointer.
     * The value provided by the linker is assumed to be correctly aligned.
     */
    movhi sp, %hi(__alt_stack_pointer)
 40201c4:	06c100f4 	movhi	sp,1027
    ori sp, sp, %lo(__alt_stack_pointer)
 40201c8:	dee00014 	ori	sp,sp,32768

    /* Set up the global pointer. */
    movhi gp, %hi(_gp)
 40201cc:	068100f4 	movhi	gp,1027
    ori gp, gp, %lo(_gp)
 40201d0:	d69d5914 	ori	gp,gp,30052
 */
#ifndef ALT_SIM_OPTIMIZE
    /* Log that the BSS is about to be cleared. */
    ALT_LOG_PUTS(alt_log_msg_bss)

    movhi r2, %hi(__bss_start)
 40201d4:	008100f4 	movhi	r2,1027
    ori r2, r2, %lo(__bss_start)
 40201d8:	1083eb14 	ori	r2,r2,4012

    movhi r3, %hi(__bss_end)
 40201dc:	00c100f4 	movhi	r3,1027
    ori r3, r3, %lo(__bss_end)
 40201e0:	18c58514 	ori	r3,r3,5652

    beq r2, r3, 1f
 40201e4:	10c00326 	beq	r2,r3,40201f4 <_start+0x40>

0:
    stw zero, (r2)
 40201e8:	10000015 	stw	zero,0(r2)
    addi r2, r2, 4
 40201ec:	10800104 	addi	r2,r2,4
    bltu r2, r3, 0b
 40201f0:	10fffd36 	bltu	r2,r3,40201e8 <_start+0x34>
     * section aren't defined until alt_load() has been called).
     */
    mov   et, zero
#endif

    call alt_load
 40201f4:	40283a40 	call	40283a4 <alt_load>

    /* Log that alt_main is about to be called. */
    ALT_LOG_PUTS(alt_log_msg_alt_main)

    /* Call the C entry point. It should never return. */
    call alt_main
 40201f8:	40284900 	call	4028490 <alt_main>

040201fc <alt_after_alt_main>:

    /* Wait in infinite loop in case alt_main does return. */
alt_after_alt_main:
    br alt_after_alt_main
 40201fc:	003fff06 	br	40201fc <alt_after_alt_main>

04020200 <auth_DESkey8to7>:
 * Functions:
 */

uchar *auth_DESkey8to7(uchar *dst, const uchar *key)

{
 4020200:	defffe04 	addi	sp,sp,-8
 4020204:	2017883a 	mov	r11,r4
	static const uint8_t map8to7[56] = { 0, 1, 2, 3, 4, 5, 6, 8, 9, 10, 11, 12,
			13, 14, 16, 17, 18, 19, 20, 21, 22, 24, 25, 26, 27, 28, 29, 30, 32,
			33, 34, 35, 36, 37, 38, 40, 41, 42, 43, 44, 45, 46, 48, 49, 50, 51,
			52, 53, 54, 56, 57, 58, 59, 60, 61, 62 };

	if ((null == dst) || (null == key))
 4020208:	2000031e 	bne	r4,zero,4020218 <auth_DESkey8to7+0x18>
	Permute(tmp, key, map8to7, 7);
	for (i = 0; i < 7; i++)
		dst[i] = tmp[i];

	return (dst);
} /* auth_DESkey8to7 */
 402020c:	5805883a 	mov	r2,r11
 4020210:	dec00204 	addi	sp,sp,8
 4020214:	f800283a 	ret
	static const uint8_t map8to7[56] = { 0, 1, 2, 3, 4, 5, 6, 8, 9, 10, 11, 12,
			13, 14, 16, 17, 18, 19, 20, 21, 22, 24, 25, 26, 27, 28, 29, 30, 32,
			33, 34, 35, 36, 37, 38, 40, 41, 42, 43, 44, 45, 46, 48, 49, 50, 51,
			52, 53, 54, 56, 57, 58, 59, 60, 61, 62 };

	if ((null == dst) || (null == key))
 4020218:	28004226 	beq	r5,zero,4020324 <auth_DESkey8to7+0x124>
	int i;

	/* Clear all bits in the destination.
	 */
	for (i = 0; i < mapsize; i++)
		dst[i] = 0;
 402021c:	000f883a 	mov	r7,zero
 4020220:	020100f4 	movhi	r8,1027
 4020224:	42354304 	addi	r8,r8,-10996
 4020228:	034001c4 	movi	r13,7
 402022c:	03000044 	movi	r12,1
 4020230:	02a00034 	movhi	r10,32768
 4020234:	528001c4 	addi	r10,r10,7
 4020238:	03bffe04 	movi	r14,-8
 402023c:	02400e04 	movi	r9,56
 4020240:	d8000005 	stb	zero,0(sp)
 4020244:	d8000045 	stb	zero,1(sp)
 4020248:	d8000085 	stb	zero,2(sp)
 402024c:	d80000c5 	stb	zero,3(sp)
 4020250:	d8000105 	stb	zero,4(sp)
 4020254:	d8000145 	stb	zero,5(sp)
 4020258:	d8000185 	stb	zero,6(sp)
 402025c:	00000a06 	br	4020288 <auth_DESkey8to7+0x88>

	/* Set destination bit if the mapped source bit it set. */
	bitcount = mapsize * 8;
	for (i = 0; i < bitcount; i++) {
		if (GETBIT( src, map[i] ))
			SETBIT( dst, i );
 4020260:	1805d0fa 	srai	r2,r3,3
 4020264:	d889883a 	add	r4,sp,r2
 4020268:	30001916 	blt	r6,zero,40202d0 <auth_DESkey8to7+0xd0>
 402026c:	6985c83a 	sub	r2,r13,r6
 4020270:	20c00003 	ldbu	r3,0(r4)
 4020274:	6084983a 	sll	r2,r12,r2
 4020278:	10c4b03a 	or	r2,r2,r3
 402027c:	20800005 	stb	r2,0(r4)
	for (i = 0; i < mapsize; i++)
		dst[i] = 0;

	/* Set destination bit if the mapped source bit it set. */
	bitcount = mapsize * 8;
	for (i = 0; i < bitcount; i++) {
 4020280:	39c00044 	addi	r7,r7,1
 4020284:	3a401626 	beq	r7,r9,40202e0 <auth_DESkey8to7+0xe0>
		if (GETBIT( src, map[i] ))
 4020288:	41000003 	ldbu	r4,0(r8)
			SETBIT( dst, i );
 402028c:	3a8c703a 	and	r6,r7,r10
	for (i = 0; i < mapsize; i++)
		dst[i] = 0;

	/* Set destination bit if the mapped source bit it set. */
	bitcount = mapsize * 8;
	for (i = 0; i < bitcount; i++) {
 4020290:	42000044 	addi	r8,r8,1
		if (GETBIT( src, map[i] ))
 4020294:	2006d0fa 	srli	r3,r4,3
 4020298:	0108303a 	nor	r4,zero,r4
 402029c:	210001cc 	andi	r4,r4,7
 40202a0:	28c7883a 	add	r3,r5,r3
 40202a4:	18800003 	ldbu	r2,0(r3)
			SETBIT( dst, i );
 40202a8:	3807883a 	mov	r3,r7
		dst[i] = 0;

	/* Set destination bit if the mapped source bit it set. */
	bitcount = mapsize * 8;
	for (i = 0; i < bitcount; i++) {
		if (GETBIT( src, map[i] ))
 40202ac:	1105d83a 	sra	r2,r2,r4
 40202b0:	1080004c 	andi	r2,r2,1
 40202b4:	1005003a 	cmpeq	r2,r2,zero
 40202b8:	103ff11e 	bne	r2,zero,4020280 <auth_DESkey8to7+0x80>
			SETBIT( dst, i );
 40202bc:	383fe80e 	bge	r7,zero,4020260 <auth_DESkey8to7+0x60>
 40202c0:	38c001c4 	addi	r3,r7,7
 40202c4:	1805d0fa 	srai	r2,r3,3
 40202c8:	d889883a 	add	r4,sp,r2
 40202cc:	303fe70e 	bge	r6,zero,402026c <auth_DESkey8to7+0x6c>
 40202d0:	31bfffc4 	addi	r6,r6,-1
 40202d4:	338cb03a 	or	r6,r6,r14
 40202d8:	31800044 	addi	r6,r6,1
 40202dc:	003fe306 	br	402026c <auth_DESkey8to7+0x6c>
	if ((null == dst) || (null == key))
		return (null);

	Permute(tmp, key, map8to7, 7);
	for (i = 0; i < 7; i++)
		dst[i] = tmp[i];
 40202e0:	d8800003 	ldbu	r2,0(sp)
 40202e4:	58800005 	stb	r2,0(r11)
 40202e8:	d8c00043 	ldbu	r3,1(sp)
 40202ec:	58c00045 	stb	r3,1(r11)
 40202f0:	d8800083 	ldbu	r2,2(sp)
 40202f4:	58800085 	stb	r2,2(r11)
 40202f8:	d8c000c3 	ldbu	r3,3(sp)
 40202fc:	58c000c5 	stb	r3,3(r11)
 4020300:	d8800103 	ldbu	r2,4(sp)
 4020304:	58800105 	stb	r2,4(r11)
 4020308:	d8c00143 	ldbu	r3,5(sp)
 402030c:	58c00145 	stb	r3,5(r11)
 4020310:	d8800183 	ldbu	r2,6(sp)
 4020314:	58800185 	stb	r2,6(r11)

	return (dst);
} /* auth_DESkey8to7 */
 4020318:	5805883a 	mov	r2,r11
 402031c:	dec00204 	addi	sp,sp,8
 4020320:	f800283a 	ret
	static const uint8_t map8to7[56] = { 0, 1, 2, 3, 4, 5, 6, 8, 9, 10, 11, 12,
			13, 14, 16, 17, 18, 19, 20, 21, 22, 24, 25, 26, 27, 28, 29, 30, 32,
			33, 34, 35, 36, 37, 38, 40, 41, 42, 43, 44, 45, 46, 48, 49, 50, 51,
			52, 53, 54, 56, 57, 58, 59, 60, 61, 62 };

	if ((null == dst) || (null == key))
 4020324:	0017883a 	mov	r11,zero
 4020328:	003fb806 	br	402020c <auth_DESkey8to7+0xc>

0402032c <auth_DEShash>:
#define IP_FP_ON
#undef IP_FP_ON

uchar *auth_DEShash(uchar *dst, const uchar *key, const uchar *src)

{
 402032c:	deffec04 	addi	sp,sp,-80
 4020330:	dd801215 	stw	r22,72(sp)
 4020334:	ddc01315 	stw	r23,76(sp)
 4020338:	dd401115 	stw	r21,68(sp)
 402033c:	dd001015 	stw	r20,64(sp)
 4020340:	dcc00f15 	stw	r19,60(sp)
 4020344:	dc800e15 	stw	r18,56(sp)
 4020348:	dc400d15 	stw	r17,52(sp)
 402034c:	dc000c15 	stw	r16,48(sp)
 4020350:	202d883a 	mov	r22,r4
	static const uint8_t map8to7[56] = { 0, 1, 2, 3, 4, 5, 6, 8, 9, 10, 11, 12,
			13, 14, 16, 17, 18, 19, 20, 21, 22, 24, 25, 26, 27, 28, 29, 30, 32,
			33, 34, 35, 36, 37, 38, 40, 41, 42, 43, 44, 45, 46, 48, 49, 50, 51,
			52, 53, 54, 56, 57, 58, 59, 60, 61, 62 };

	if ((null == dst) || (null == key))
 4020354:	28004026 	beq	r5,zero,4020458 <auth_DEShash+0x12c>
	int i;

	/* Clear all bits in the destination.
	 */
	for (i = 0; i < mapsize; i++)
		dst[i] = 0;
 4020358:	0011883a 	mov	r8,zero
 402035c:	024100f4 	movhi	r9,1027
 4020360:	4a754304 	addi	r9,r9,-10996
 4020364:	038001c4 	movi	r14,7
 4020368:	03000044 	movi	r12,1
 402036c:	db4005c4 	addi	r13,sp,23
 4020370:	02e00034 	movhi	r11,32768
 4020374:	5ac001c4 	addi	r11,r11,7
 4020378:	03fffe04 	movi	r15,-8
 402037c:	02800e04 	movi	r10,56
 4020380:	d80005c5 	stb	zero,23(sp)
 4020384:	d8000605 	stb	zero,24(sp)
 4020388:	d8000645 	stb	zero,25(sp)
 402038c:	d8000685 	stb	zero,26(sp)
 4020390:	d80006c5 	stb	zero,27(sp)
 4020394:	d8000705 	stb	zero,28(sp)
 4020398:	d8000745 	stb	zero,29(sp)
 402039c:	00000a06 	br	40203c8 <auth_DEShash+0x9c>

	/* Set destination bit if the mapped source bit it set. */
	bitcount = mapsize * 8;
	for (i = 0; i < bitcount; i++) {
		if (GETBIT( src, map[i] ))
			SETBIT( dst, i );
 40203a0:	1805d0fa 	srai	r2,r3,3
 40203a4:	6889883a 	add	r4,r13,r2
 40203a8:	38001916 	blt	r7,zero,4020410 <auth_DEShash+0xe4>
 40203ac:	71c5c83a 	sub	r2,r14,r7
 40203b0:	20c00003 	ldbu	r3,0(r4)
 40203b4:	6084983a 	sll	r2,r12,r2
 40203b8:	10c4b03a 	or	r2,r2,r3
 40203bc:	20800005 	stb	r2,0(r4)
	for (i = 0; i < mapsize; i++)
		dst[i] = 0;

	/* Set destination bit if the mapped source bit it set. */
	bitcount = mapsize * 8;
	for (i = 0; i < bitcount; i++) {
 40203c0:	42000044 	addi	r8,r8,1
 40203c4:	42801626 	beq	r8,r10,4020420 <auth_DEShash+0xf4>
		if (GETBIT( src, map[i] ))
 40203c8:	49000003 	ldbu	r4,0(r9)
			SETBIT( dst, i );
 40203cc:	42ce703a 	and	r7,r8,r11
	for (i = 0; i < mapsize; i++)
		dst[i] = 0;

	/* Set destination bit if the mapped source bit it set. */
	bitcount = mapsize * 8;
	for (i = 0; i < bitcount; i++) {
 40203d0:	4a400044 	addi	r9,r9,1
		if (GETBIT( src, map[i] ))
 40203d4:	2006d0fa 	srli	r3,r4,3
 40203d8:	0108303a 	nor	r4,zero,r4
 40203dc:	210001cc 	andi	r4,r4,7
 40203e0:	28c7883a 	add	r3,r5,r3
 40203e4:	18800003 	ldbu	r2,0(r3)
			SETBIT( dst, i );
 40203e8:	4007883a 	mov	r3,r8
		dst[i] = 0;

	/* Set destination bit if the mapped source bit it set. */
	bitcount = mapsize * 8;
	for (i = 0; i < bitcount; i++) {
		if (GETBIT( src, map[i] ))
 40203ec:	1105d83a 	sra	r2,r2,r4
 40203f0:	1080004c 	andi	r2,r2,1
 40203f4:	1005003a 	cmpeq	r2,r2,zero
 40203f8:	103ff11e 	bne	r2,zero,40203c0 <auth_DEShash+0x94>
			SETBIT( dst, i );
 40203fc:	403fe80e 	bge	r8,zero,40203a0 <auth_DEShash+0x74>
 4020400:	40c001c4 	addi	r3,r8,7
 4020404:	1805d0fa 	srai	r2,r3,3
 4020408:	6889883a 	add	r4,r13,r2
 402040c:	383fe70e 	bge	r7,zero,40203ac <auth_DEShash+0x80>
 4020410:	39ffffc4 	addi	r7,r7,-1
 4020414:	3bceb03a 	or	r7,r7,r15
 4020418:	39c00044 	addi	r7,r7,1
 402041c:	003fe306 	br	40203ac <auth_DEShash+0x80>
	if ((null == dst) || (null == key))
		return (null);

	Permute(tmp, key, map8to7, 7);
	for (i = 0; i < 7; i++)
		dst[i] = tmp[i];
 4020420:	d88005c3 	ldbu	r2,23(sp)
 4020424:	d8c00603 	ldbu	r3,24(sp)
 4020428:	d8800405 	stb	r2,16(sp)
 402042c:	d8800643 	ldbu	r2,25(sp)
 4020430:	d8c00445 	stb	r3,17(sp)
 4020434:	d8c00683 	ldbu	r3,26(sp)
 4020438:	d8800485 	stb	r2,18(sp)
 402043c:	d88006c3 	ldbu	r2,27(sp)
 4020440:	d8c004c5 	stb	r3,19(sp)
 4020444:	d8c00703 	ldbu	r3,28(sp)
 4020448:	d8800505 	stb	r2,20(sp)
 402044c:	d8800743 	ldbu	r2,29(sp)
 4020450:	d8c00545 	stb	r3,21(sp)
 4020454:	d8800585 	stb	r2,22(sp)
	int i;

	/* Clear all bits in the destination.
	 */
	for (i = 0; i < mapsize; i++)
		dst[i] = 0;
 4020458:	000f883a 	mov	r7,zero
 402045c:	020100f4 	movhi	r8,1027
 4020460:	42349104 	addi	r8,r8,-11708
 4020464:	dac00404 	addi	r11,sp,16
 4020468:	dbc00784 	addi	r15,sp,30
 402046c:	030001c4 	movi	r12,7
 4020470:	03400044 	movi	r13,1
 4020474:	02a00034 	movhi	r10,32768
 4020478:	528001c4 	addi	r10,r10,7
 402047c:	03bffe04 	movi	r14,-8
 4020480:	02400e04 	movi	r9,56
 4020484:	d8000785 	stb	zero,30(sp)
 4020488:	d80007c5 	stb	zero,31(sp)
 402048c:	d8000805 	stb	zero,32(sp)
 4020490:	d8000845 	stb	zero,33(sp)
 4020494:	d8000885 	stb	zero,34(sp)
 4020498:	d80008c5 	stb	zero,35(sp)
 402049c:	d8000905 	stb	zero,36(sp)
 40204a0:	00000a06 	br	40204cc <auth_DEShash+0x1a0>

	/* Set destination bit if the mapped source bit it set. */
	bitcount = mapsize * 8;
	for (i = 0; i < bitcount; i++) {
		if (GETBIT( src, map[i] ))
			SETBIT( dst, i );
 40204a4:	1805d0fa 	srai	r2,r3,3
 40204a8:	7889883a 	add	r4,r15,r2
 40204ac:	28001916 	blt	r5,zero,4020514 <auth_DEShash+0x1e8>
 40204b0:	6145c83a 	sub	r2,r12,r5
 40204b4:	20c00003 	ldbu	r3,0(r4)
 40204b8:	6884983a 	sll	r2,r13,r2
 40204bc:	10c4b03a 	or	r2,r2,r3
 40204c0:	20800005 	stb	r2,0(r4)
	for (i = 0; i < mapsize; i++)
		dst[i] = 0;

	/* Set destination bit if the mapped source bit it set. */
	bitcount = mapsize * 8;
	for (i = 0; i < bitcount; i++) {
 40204c4:	39c00044 	addi	r7,r7,1
 40204c8:	3a401626 	beq	r7,r9,4020524 <auth_DEShash+0x1f8>
		if (GETBIT( src, map[i] ))
 40204cc:	41000003 	ldbu	r4,0(r8)
			SETBIT( dst, i );
 40204d0:	3a8a703a 	and	r5,r7,r10
	for (i = 0; i < mapsize; i++)
		dst[i] = 0;

	/* Set destination bit if the mapped source bit it set. */
	bitcount = mapsize * 8;
	for (i = 0; i < bitcount; i++) {
 40204d4:	42000044 	addi	r8,r8,1
		if (GETBIT( src, map[i] ))
 40204d8:	2006d0fa 	srli	r3,r4,3
 40204dc:	0108303a 	nor	r4,zero,r4
 40204e0:	210001cc 	andi	r4,r4,7
 40204e4:	58c7883a 	add	r3,r11,r3
 40204e8:	18800003 	ldbu	r2,0(r3)
			SETBIT( dst, i );
 40204ec:	3807883a 	mov	r3,r7
		dst[i] = 0;

	/* Set destination bit if the mapped source bit it set. */
	bitcount = mapsize * 8;
	for (i = 0; i < bitcount; i++) {
		if (GETBIT( src, map[i] ))
 40204f0:	1105d83a 	sra	r2,r2,r4
 40204f4:	1080004c 	andi	r2,r2,1
 40204f8:	1005003a 	cmpeq	r2,r2,zero
 40204fc:	103ff11e 	bne	r2,zero,40204c4 <auth_DEShash+0x198>
			SETBIT( dst, i );
 4020500:	383fe80e 	bge	r7,zero,40204a4 <auth_DEShash+0x178>
 4020504:	38c001c4 	addi	r3,r7,7
 4020508:	1805d0fa 	srai	r2,r3,3
 402050c:	7889883a 	add	r4,r15,r2
 4020510:	283fe70e 	bge	r5,zero,40204b0 <auth_DEShash+0x184>
 4020514:	297fffc4 	addi	r5,r5,-1
 4020518:	2b8ab03a 	or	r5,r5,r14
 402051c:	29400044 	addi	r5,r5,1
 4020520:	003fe306 	br	40204b0 <auth_DEShash+0x184>
	Permute( D, src, InitialPermuteMap, 8 );
#else
	int temp = 0;
	for (temp = 0; temp < 8; temp = temp + 1)
	{
		D[temp] = src[temp];
 4020524:	328001c3 	ldbu	r10,7(r6)
 4020528:	31400003 	ldbu	r5,0(r6)
 402052c:	31c00043 	ldbu	r7,1(r6)
 4020530:	32000083 	ldbu	r8,2(r6)
 4020534:	324000c3 	ldbu	r9,3(r6)
 4020538:	30800103 	ldbu	r2,4(r6)
 402053c:	31000143 	ldbu	r4,5(r6)
 4020540:	30c00183 	ldbu	r3,6(r6)
 4020544:	054100f4 	movhi	r21,1027
 4020548:	ad749f04 	addi	r21,r21,-11652
 402054c:	d9400945 	stb	r5,37(sp)
 4020550:	d9c00985 	stb	r7,38(sp)
 4020554:	da0009c5 	stb	r8,39(sp)
 4020558:	da400a05 	stb	r9,40(sp)
 402055c:	d8800a45 	stb	r2,41(sp)
 4020560:	d9000a85 	stb	r4,42(sp)
 4020564:	d8c00ac5 	stb	r3,43(sp)
 4020568:	da800b05 	stb	r10,44(sp)
 402056c:	dcc00944 	addi	r19,sp,37
 4020570:	db800104 	addi	r14,sp,4
 4020574:	adc00404 	addi	r23,r21,16
 4020578:	dd000284 	addi	r20,sp,10
		uchar Rn[4]; /* New value of R, as we manipulate it.         */
		uchar SubK[6]; /* The 48-bit subkey.                           */

		/* Generate the subkey for this round.
		 */
		KeyShift(K, KeyRotation[i]);
 402057c:	aa000003 	ldbu	r8,0(r21)

static void KeyShift(uchar *key, const int numbits)

{
	int i;
	uchar keep = key[0]; /* Copy the highest order bits of the key. */
 4020580:	d9800783 	ldbu	r6,30(sp)

	/* Repeat the shift process <numbits> times.
	 */
	for (i = 0; i < numbits; i++) {
 4020584:	40003326 	beq	r8,zero,4020654 <auth_DEShash+0x328>
	dst[2] = D[6];
	dst[3] = D[7];
	dst[4] = D[0];
	dst[5] = D[1];
	dst[6] = D[2];
	dst[7] = D[3];
 4020588:	000f883a 	mov	r7,zero
		/* Shift the entire thing, byte by byte.
		 */
		for (j = 0; j < 7; j++) {
			if (j && (key[j] & 0x80)) /* If the top bit of this byte is set. */
				key[j - 1] |= 0x01; /* ...shift it to last byte's low bit. */
			key[j] <<= 1; /* Then left-shift the whole byte.     */
 402058c:	78800003 	ldbu	r2,0(r15)
	for (i = 0; i < numbits; i++) {
		int j;

		/* Shift the entire thing, byte by byte.
		 */
		for (j = 0; j < 7; j++) {
 4020590:	01400044 	movi	r5,1
 4020594:	0009883a 	mov	r4,zero
			if (j && (key[j] & 0x80)) /* If the top bit of this byte is set. */
				key[j - 1] |= 0x01; /* ...shift it to last byte's low bit. */
			key[j] <<= 1; /* Then left-shift the whole byte.     */
 4020598:	1085883a 	add	r2,r2,r2
 402059c:	78800005 	stb	r2,0(r15)
	int i;
	uchar keep = key[0]; /* Copy the highest order bits of the key. */

	/* Repeat the shift process <numbits> times.
	 */
	for (i = 0; i < numbits; i++) {
 40205a0:	7907883a 	add	r3,r15,r4
 40205a4:	2809883a 	mov	r4,r5
 40205a8:	18c00044 	addi	r3,r3,1
		int j;

		/* Shift the entire thing, byte by byte.
		 */
		for (j = 0; j < 7; j++) {
			if (j && (key[j] & 0x80)) /* If the top bit of this byte is set. */
 40205ac:	20001b26 	beq	r4,zero,402061c <auth_DEShash+0x2f0>
 40205b0:	7907883a 	add	r3,r15,r4
 40205b4:	18800007 	ldb	r2,0(r3)
 40205b8:	10001d16 	blt	r2,zero,4020630 <auth_DEShash+0x304>
				key[j - 1] |= 0x01; /* ...shift it to last byte's low bit. */
			key[j] <<= 1; /* Then left-shift the whole byte.     */
 40205bc:	18800003 	ldbu	r2,0(r3)
	for (i = 0; i < numbits; i++) {
		int j;

		/* Shift the entire thing, byte by byte.
		 */
		for (j = 0; j < 7; j++) {
 40205c0:	21400044 	addi	r5,r4,1
			if (j && (key[j] & 0x80)) /* If the top bit of this byte is set. */
				key[j - 1] |= 0x01; /* ...shift it to last byte's low bit. */
			key[j] <<= 1; /* Then left-shift the whole byte.     */
 40205c4:	1085883a 	add	r2,r2,r2
 40205c8:	18800005 	stb	r2,0(r3)
	for (i = 0; i < numbits; i++) {
		int j;

		/* Shift the entire thing, byte by byte.
		 */
		for (j = 0; j < 7; j++) {
 40205cc:	00c00184 	movi	r3,6
 40205d0:	197ff30e 	bge	r3,r5,40205a0 <auth_DEShash+0x274>
		/* Now move the high-order bits of each 28-bit half-key to their
		 * correct locations.
		 * Bit 27 is the lowest order bit of the first half-key.
		 * Before the shift, it was the highest order bit of the 2nd half-key.
		 */
		if (GETBIT( key, 27 )) /* If bit 27 is set... */
 40205d4:	d8c00843 	ldbu	r3,33(sp)
 40205d8:	1804d13a 	srli	r2,r3,4
 40205dc:	1080004c 	andi	r2,r2,1
 40205e0:	1005003a 	cmpeq	r2,r2,zero
 40205e4:	1000051e 	bne	r2,zero,40205fc <auth_DEShash+0x2d0>
		{
			CLRBIT( key, 27 ); /* ...clear bit 27. */
			SETBIT( key, 55 ); /* ...set lowest order bit of 2nd half-key. */
 40205e8:	d8800903 	ldbu	r2,36(sp)
		 * Bit 27 is the lowest order bit of the first half-key.
		 * Before the shift, it was the highest order bit of the 2nd half-key.
		 */
		if (GETBIT( key, 27 )) /* If bit 27 is set... */
		{
			CLRBIT( key, 27 ); /* ...clear bit 27. */
 40205ec:	18c03bcc 	andi	r3,r3,239
 40205f0:	d8c00845 	stb	r3,33(sp)
			SETBIT( key, 55 ); /* ...set lowest order bit of 2nd half-key. */
 40205f4:	10800054 	ori	r2,r2,1
 40205f8:	d8800905 	stb	r2,36(sp)
		}

		/* We kept the highest order bit of the first half-key in <keep>.
		 * If it's set, copy it to bit 27.
		 */
		if (keep & 0x80)
 40205fc:	30803fcc 	andi	r2,r6,255
 4020600:	1080201c 	xori	r2,r2,128
 4020604:	10bfe004 	addi	r2,r2,-128
 4020608:	10000d16 	blt	r2,zero,4020640 <auth_DEShash+0x314>
	int i;
	uchar keep = key[0]; /* Copy the highest order bits of the key. */

	/* Repeat the shift process <numbits> times.
	 */
	for (i = 0; i < numbits; i++) {
 402060c:	39c00044 	addi	r7,r7,1
 4020610:	41c01026 	beq	r8,r7,4020654 <auth_DEShash+0x328>
			SETBIT( key, 27 );

		/* Rotate the <keep> byte too, in case <numbits> is 2 and there's
		 * a second round coming.
		 */
		keep <<= 1;
 4020614:	318d883a 	add	r6,r6,r6
 4020618:	003fdc06 	br	402058c <auth_DEShash+0x260>
		/* Shift the entire thing, byte by byte.
		 */
		for (j = 0; j < 7; j++) {
			if (j && (key[j] & 0x80)) /* If the top bit of this byte is set. */
				key[j - 1] |= 0x01; /* ...shift it to last byte's low bit. */
			key[j] <<= 1; /* Then left-shift the whole byte.     */
 402061c:	18800003 	ldbu	r2,0(r3)
 4020620:	01000044 	movi	r4,1
 4020624:	1085883a 	add	r2,r2,r2
 4020628:	18800005 	stb	r2,0(r3)
 402062c:	003fde06 	br	40205a8 <auth_DEShash+0x27c>

		/* Shift the entire thing, byte by byte.
		 */
		for (j = 0; j < 7; j++) {
			if (j && (key[j] & 0x80)) /* If the top bit of this byte is set. */
				key[j - 1] |= 0x01; /* ...shift it to last byte's low bit. */
 4020630:	18bfffc3 	ldbu	r2,-1(r3)
 4020634:	10800054 	ori	r2,r2,1
 4020638:	18bfffc5 	stb	r2,-1(r3)
 402063c:	003fdf06 	br	40205bc <auth_DEShash+0x290>

		/* We kept the highest order bit of the first half-key in <keep>.
		 * If it's set, copy it to bit 27.
		 */
		if (keep & 0x80)
			SETBIT( key, 27 );
 4020640:	d8800843 	ldbu	r2,33(sp)
	int i;
	uchar keep = key[0]; /* Copy the highest order bits of the key. */

	/* Repeat the shift process <numbits> times.
	 */
	for (i = 0; i < numbits; i++) {
 4020644:	39c00044 	addi	r7,r7,1

		/* We kept the highest order bit of the first half-key in <keep>.
		 * If it's set, copy it to bit 27.
		 */
		if (keep & 0x80)
			SETBIT( key, 27 );
 4020648:	10800414 	ori	r2,r2,16
 402064c:	d8800845 	stb	r2,33(sp)
	int i;
	uchar keep = key[0]; /* Copy the highest order bits of the key. */

	/* Repeat the shift process <numbits> times.
	 */
	for (i = 0; i < numbits; i++) {
 4020650:	41fff01e 	bne	r8,r7,4020614 <auth_DEShash+0x2e8>
	int i;

	/* Clear all bits in the destination.
	 */
	for (i = 0; i < mapsize; i++)
		dst[i] = 0;
 4020654:	000d883a 	mov	r6,zero
 4020658:	01c100f4 	movhi	r7,1027
 402065c:	39f4a304 	addi	r7,r7,-11636
 4020660:	02c001c4 	movi	r11,7
 4020664:	02800044 	movi	r10,1
 4020668:	02600034 	movhi	r9,32768
 402066c:	4a4001c4 	addi	r9,r9,7
 4020670:	033ffe04 	movi	r12,-8
 4020674:	02000c04 	movi	r8,48
 4020678:	d8000285 	stb	zero,10(sp)
 402067c:	d80002c5 	stb	zero,11(sp)
 4020680:	d8000305 	stb	zero,12(sp)
 4020684:	d8000345 	stb	zero,13(sp)
 4020688:	d8000385 	stb	zero,14(sp)
 402068c:	d80003c5 	stb	zero,15(sp)
 4020690:	00000a06 	br	40206bc <auth_DEShash+0x390>

	/* Set destination bit if the mapped source bit it set. */
	bitcount = mapsize * 8;
	for (i = 0; i < bitcount; i++) {
		if (GETBIT( src, map[i] ))
			SETBIT( dst, i );
 4020694:	1805d0fa 	srai	r2,r3,3
 4020698:	a089883a 	add	r4,r20,r2
 402069c:	28001916 	blt	r5,zero,4020704 <auth_DEShash+0x3d8>
 40206a0:	5945c83a 	sub	r2,r11,r5
 40206a4:	20c00003 	ldbu	r3,0(r4)
 40206a8:	5084983a 	sll	r2,r10,r2
 40206ac:	10c4b03a 	or	r2,r2,r3
 40206b0:	20800005 	stb	r2,0(r4)
	for (i = 0; i < mapsize; i++)
		dst[i] = 0;

	/* Set destination bit if the mapped source bit it set. */
	bitcount = mapsize * 8;
	for (i = 0; i < bitcount; i++) {
 40206b4:	31800044 	addi	r6,r6,1
 40206b8:	32001626 	beq	r6,r8,4020714 <auth_DEShash+0x3e8>
		if (GETBIT( src, map[i] ))
 40206bc:	39000003 	ldbu	r4,0(r7)
			SETBIT( dst, i );
 40206c0:	324a703a 	and	r5,r6,r9
	for (i = 0; i < mapsize; i++)
		dst[i] = 0;

	/* Set destination bit if the mapped source bit it set. */
	bitcount = mapsize * 8;
	for (i = 0; i < bitcount; i++) {
 40206c4:	39c00044 	addi	r7,r7,1
		if (GETBIT( src, map[i] ))
 40206c8:	2006d0fa 	srli	r3,r4,3
 40206cc:	0108303a 	nor	r4,zero,r4
 40206d0:	210001cc 	andi	r4,r4,7
 40206d4:	78c7883a 	add	r3,r15,r3
 40206d8:	18800003 	ldbu	r2,0(r3)
			SETBIT( dst, i );
 40206dc:	3007883a 	mov	r3,r6
		dst[i] = 0;

	/* Set destination bit if the mapped source bit it set. */
	bitcount = mapsize * 8;
	for (i = 0; i < bitcount; i++) {
		if (GETBIT( src, map[i] ))
 40206e0:	1105d83a 	sra	r2,r2,r4
 40206e4:	1080004c 	andi	r2,r2,1
 40206e8:	1005003a 	cmpeq	r2,r2,zero
 40206ec:	103ff11e 	bne	r2,zero,40206b4 <auth_DEShash+0x388>
			SETBIT( dst, i );
 40206f0:	303fe80e 	bge	r6,zero,4020694 <auth_DEShash+0x368>
 40206f4:	30c001c4 	addi	r3,r6,7
 40206f8:	1805d0fa 	srai	r2,r3,3
 40206fc:	a089883a 	add	r4,r20,r2
 4020700:	283fe70e 	bge	r5,zero,40206a0 <auth_DEShash+0x374>
 4020704:	297fffc4 	addi	r5,r5,-1
 4020708:	2b0ab03a 	or	r5,r5,r12
 402070c:	29400044 	addi	r5,r5,1
 4020710:	003fe306 	br	40206a0 <auth_DEShash+0x374>
	int i;

	/* Clear all bits in the destination.
	 */
	for (i = 0; i < mapsize; i++)
		dst[i] = 0;
 4020714:	000d883a 	mov	r6,zero
 4020718:	01c100f4 	movhi	r7,1027
 402071c:	39f4af04 	addi	r7,r7,-11588
 4020720:	02c001c4 	movi	r11,7
 4020724:	02800044 	movi	r10,1
 4020728:	02600034 	movhi	r9,32768
 402072c:	4a4001c4 	addi	r9,r9,7
 4020730:	033ffe04 	movi	r12,-8
 4020734:	02000c04 	movi	r8,48
 4020738:	d8000105 	stb	zero,4(sp)
 402073c:	d8000145 	stb	zero,5(sp)
 4020740:	d8000185 	stb	zero,6(sp)
 4020744:	d80001c5 	stb	zero,7(sp)
 4020748:	d8000205 	stb	zero,8(sp)
 402074c:	d8000245 	stb	zero,9(sp)
 4020750:	00000a06 	br	402077c <auth_DEShash+0x450>

	/* Set destination bit if the mapped source bit it set. */
	bitcount = mapsize * 8;
	for (i = 0; i < bitcount; i++) {
		if (GETBIT( src, map[i] ))
			SETBIT( dst, i );
 4020754:	1805d0fa 	srai	r2,r3,3
 4020758:	7089883a 	add	r4,r14,r2
 402075c:	28001916 	blt	r5,zero,40207c4 <auth_DEShash+0x498>
 4020760:	5945c83a 	sub	r2,r11,r5
 4020764:	20c00003 	ldbu	r3,0(r4)
 4020768:	5084983a 	sll	r2,r10,r2
 402076c:	10c4b03a 	or	r2,r2,r3
 4020770:	20800005 	stb	r2,0(r4)
	for (i = 0; i < mapsize; i++)
		dst[i] = 0;

	/* Set destination bit if the mapped source bit it set. */
	bitcount = mapsize * 8;
	for (i = 0; i < bitcount; i++) {
 4020774:	31800044 	addi	r6,r6,1
 4020778:	32001626 	beq	r6,r8,40207d4 <auth_DEShash+0x4a8>
		if (GETBIT( src, map[i] ))
 402077c:	39000003 	ldbu	r4,0(r7)
			SETBIT( dst, i );
 4020780:	324a703a 	and	r5,r6,r9
	for (i = 0; i < mapsize; i++)
		dst[i] = 0;

	/* Set destination bit if the mapped source bit it set. */
	bitcount = mapsize * 8;
	for (i = 0; i < bitcount; i++) {
 4020784:	39c00044 	addi	r7,r7,1
		if (GETBIT( src, map[i] ))
 4020788:	2006d0fa 	srli	r3,r4,3
 402078c:	0108303a 	nor	r4,zero,r4
 4020790:	210001cc 	andi	r4,r4,7
 4020794:	98c7883a 	add	r3,r19,r3
 4020798:	18800103 	ldbu	r2,4(r3)
			SETBIT( dst, i );
 402079c:	3007883a 	mov	r3,r6
		dst[i] = 0;

	/* Set destination bit if the mapped source bit it set. */
	bitcount = mapsize * 8;
	for (i = 0; i < bitcount; i++) {
		if (GETBIT( src, map[i] ))
 40207a0:	1105d83a 	sra	r2,r2,r4
 40207a4:	1080004c 	andi	r2,r2,1
 40207a8:	1005003a 	cmpeq	r2,r2,zero
 40207ac:	103ff11e 	bne	r2,zero,4020774 <auth_DEShash+0x448>
			SETBIT( dst, i );
 40207b0:	303fe80e 	bge	r6,zero,4020754 <auth_DEShash+0x428>
 40207b4:	30c001c4 	addi	r3,r6,7
 40207b8:	1805d0fa 	srai	r2,r3,3
 40207bc:	7089883a 	add	r4,r14,r2
 40207c0:	283fe70e 	bge	r5,zero,4020760 <auth_DEShash+0x434>
 40207c4:	297fffc4 	addi	r5,r5,-1
 40207c8:	2b0ab03a 	or	r5,r5,r12
 40207cc:	29400044 	addi	r5,r5,1
 40207d0:	003fe306 	br	4020760 <auth_DEShash+0x434>

{
	int i;

	for (i = 0; i < count; i++)
		dst[i] = a[i] ^ b[i];
 40207d4:	da000103 	ldbu	r8,4(sp)
 40207d8:	d8800283 	ldbu	r2,10(sp)
 40207dc:	d9c00143 	ldbu	r7,5(sp)
 40207e0:	d9800183 	ldbu	r6,6(sp)
 40207e4:	4090f03a 	xor	r8,r8,r2
 40207e8:	d88002c3 	ldbu	r2,11(sp)
 40207ec:	d94001c3 	ldbu	r5,7(sp)
 40207f0:	d9000203 	ldbu	r4,8(sp)
 40207f4:	388ef03a 	xor	r7,r7,r2
 40207f8:	d8800303 	ldbu	r2,12(sp)
 40207fc:	d8c00243 	ldbu	r3,9(sp)
 4020800:	044100f4 	movhi	r17,1027
 4020804:	8c74c304 	addi	r17,r17,-11508
 4020808:	308cf03a 	xor	r6,r6,r2
 402080c:	d8800343 	ldbu	r2,13(sp)
 4020810:	d9c00145 	stb	r7,5(sp)
	int i;

	/* Clear the destination array.
	 */
	for (i = 0; i < 4; i++)
		dst[i] = 0;
 4020814:	001b883a 	mov	r13,zero

{
	int i;

	for (i = 0; i < count; i++)
		dst[i] = a[i] ^ b[i];
 4020818:	288af03a 	xor	r5,r5,r2
 402081c:	d8800383 	ldbu	r2,14(sp)
	int i;

	/* Clear the destination array.
	 */
	for (i = 0; i < 4; i++)
		dst[i] = 0;
 4020820:	000f883a 	mov	r7,zero
 4020824:	04bffe04 	movi	r18,-8

{
	int i;

	for (i = 0; i < count; i++)
		dst[i] = a[i] ^ b[i];
 4020828:	2088f03a 	xor	r4,r4,r2
 402082c:	d88003c3 	ldbu	r2,15(sp)
 4020830:	8821883a 	mov	r16,r17
 4020834:	da000105 	stb	r8,4(sp)
 4020838:	1886f03a 	xor	r3,r3,r2
 402083c:	d9800185 	stb	r6,6(sp)
 4020840:	d94001c5 	stb	r5,7(sp)
 4020844:	d9000205 	stb	r4,8(sp)
 4020848:	d8c00245 	stb	r3,9(sp)
	int i;

	/* Clear the destination array.
	 */
	for (i = 0; i < 4; i++)
		dst[i] = 0;
 402084c:	d8000005 	stb	zero,0(sp)
 4020850:	d8000045 	stb	zero,1(sp)
 4020854:	d8000085 	stb	zero,2(sp)
 4020858:	d80000c5 	stb	zero,3(sp)
 402085c:	00001006 	br	40208a0 <auth_DEShash+0x574>
		/* Find the correct value in the correct SBox[]
		 * and copy it into the destination.
		 * Left shift the nibble four bytes for even values of <i>.
		 */
		if (0 == (i % 2))
			dst[i / 2] |= ((SBox[i][Snum]) << 4);
 4020860:	6804d7fa 	srli	r2,r13,31
 4020864:	8107883a 	add	r3,r16,r4
 4020868:	19000003 	ldbu	r4,0(r3)
 402086c:	1345883a 	add	r2,r2,r13
 4020870:	1005d07a 	srai	r2,r2,1
 4020874:	2008913a 	slli	r4,r4,4
	for (i = 0; i < 4; i++)
		dst[i] = 0;

	/* For each set of six input bits...
	 */
	for (i = 0; i < 8; i++) {
 4020878:	6b400044 	addi	r13,r13,1
		/* Find the correct value in the correct SBox[]
		 * and copy it into the destination.
		 * Left shift the nibble four bytes for even values of <i>.
		 */
		if (0 == (i % 2))
			dst[i / 2] |= ((SBox[i][Snum]) << 4);
 402087c:	d88b883a 	add	r5,sp,r2
 4020880:	28c00003 	ldbu	r3,0(r5)
	for (i = 0; i < 4; i++)
		dst[i] = 0;

	/* For each set of six input bits...
	 */
	for (i = 0; i < 8; i++) {
 4020884:	00800204 	movi	r2,8
 4020888:	84001004 	addi	r16,r16,64
		/* Find the correct value in the correct SBox[]
		 * and copy it into the destination.
		 * Left shift the nibble four bytes for even values of <i>.
		 */
		if (0 == (i % 2))
			dst[i / 2] |= ((SBox[i][Snum]) << 4);
 402088c:	20c8b03a 	or	r4,r4,r3
 4020890:	29000005 	stb	r4,0(r5)
	for (i = 0; i < 4; i++)
		dst[i] = 0;

	/* For each set of six input bits...
	 */
	for (i = 0; i < 8; i++) {
 4020894:	8c401004 	addi	r17,r17,64
 4020898:	39c00184 	addi	r7,r7,6
 402089c:	68805f26 	beq	r13,r2,4020a1c <auth_DEShash+0x6f0>
	int i;

	/* Clear the destination array.
	 */
	for (i = 0; i < 4; i++)
		dst[i] = 0;
 40208a0:	39000044 	addi	r4,r7,1
 40208a4:	39800084 	addi	r6,r7,2
 40208a8:	3a0000c4 	addi	r8,r7,3
 40208ac:	3a400104 	addi	r9,r7,4
 40208b0:	3a800144 	addi	r10,r7,5
		/* Extract the 6-bit integer from the source.
		 * This will be the lookup key within the SBox[i] array.
		 */
		for (Snum = j = 0, bitnum = (i * 6); j < 6; j++, bitnum++) {
			Snum <<= 1;
			Snum |= GETBIT( src, bitnum );
 40208b4:	3805883a 	mov	r2,r7
 40208b8:	3800a816 	blt	r7,zero,4020b5c <auth_DEShash+0x830>
 40208bc:	1005d0fa 	srai	r2,r2,3
 40208c0:	03200034 	movhi	r12,32768
 40208c4:	630001c4 	addi	r12,r12,7
 40208c8:	3b06703a 	and	r3,r7,r12
 40208cc:	7085883a 	add	r2,r14,r2
 40208d0:	11400003 	ldbu	r5,0(r2)
 40208d4:	18009d16 	blt	r3,zero,4020b4c <auth_DEShash+0x820>
 40208d8:	02c001c4 	movi	r11,7
 40208dc:	58c5c83a 	sub	r2,r11,r3
 40208e0:	2885d83a 	sra	r2,r5,r2
 40208e4:	2007883a 	mov	r3,r4
 40208e8:	1080004c 	andi	r2,r2,1
 40208ec:	108b883a 	add	r5,r2,r2
 40208f0:	20009416 	blt	r4,zero,4020b44 <auth_DEShash+0x818>
 40208f4:	1805d0fa 	srai	r2,r3,3
 40208f8:	2306703a 	and	r3,r4,r12
 40208fc:	7085883a 	add	r2,r14,r2
 4020900:	11000003 	ldbu	r4,0(r2)
 4020904:	18008b16 	blt	r3,zero,4020b34 <auth_DEShash+0x808>
 4020908:	58c5c83a 	sub	r2,r11,r3
 402090c:	2085d83a 	sra	r2,r4,r2
 4020910:	3007883a 	mov	r3,r6
 4020914:	1080004c 	andi	r2,r2,1
 4020918:	2884b03a 	or	r2,r5,r2
 402091c:	108b883a 	add	r5,r2,r2
 4020920:	30008216 	blt	r6,zero,4020b2c <auth_DEShash+0x800>
 4020924:	1805d0fa 	srai	r2,r3,3
 4020928:	3306703a 	and	r3,r6,r12
 402092c:	7085883a 	add	r2,r14,r2
 4020930:	11000003 	ldbu	r4,0(r2)
 4020934:	18007916 	blt	r3,zero,4020b1c <auth_DEShash+0x7f0>
 4020938:	58c5c83a 	sub	r2,r11,r3
 402093c:	2085d83a 	sra	r2,r4,r2
 4020940:	4007883a 	mov	r3,r8
 4020944:	1080004c 	andi	r2,r2,1
 4020948:	2884b03a 	or	r2,r5,r2
 402094c:	108b883a 	add	r5,r2,r2
 4020950:	40007016 	blt	r8,zero,4020b14 <auth_DEShash+0x7e8>
 4020954:	1805d0fa 	srai	r2,r3,3
 4020958:	4306703a 	and	r3,r8,r12
 402095c:	7085883a 	add	r2,r14,r2
 4020960:	11000003 	ldbu	r4,0(r2)
 4020964:	18006716 	blt	r3,zero,4020b04 <auth_DEShash+0x7d8>
 4020968:	58c5c83a 	sub	r2,r11,r3
 402096c:	2085d83a 	sra	r2,r4,r2
 4020970:	4807883a 	mov	r3,r9
 4020974:	1080004c 	andi	r2,r2,1
 4020978:	2884b03a 	or	r2,r5,r2
 402097c:	108b883a 	add	r5,r2,r2
 4020980:	48005e16 	blt	r9,zero,4020afc <auth_DEShash+0x7d0>
 4020984:	1805d0fa 	srai	r2,r3,3
 4020988:	4b06703a 	and	r3,r9,r12
 402098c:	7085883a 	add	r2,r14,r2
 4020990:	11000003 	ldbu	r4,0(r2)
 4020994:	18005516 	blt	r3,zero,4020aec <auth_DEShash+0x7c0>
 4020998:	58c5c83a 	sub	r2,r11,r3
 402099c:	2085d83a 	sra	r2,r4,r2
 40209a0:	5007883a 	mov	r3,r10
 40209a4:	1080004c 	andi	r2,r2,1
 40209a8:	2884b03a 	or	r2,r5,r2
 40209ac:	108b883a 	add	r5,r2,r2
 40209b0:	50004c16 	blt	r10,zero,4020ae4 <auth_DEShash+0x7b8>
 40209b4:	1805d0fa 	srai	r2,r3,3
 40209b8:	5306703a 	and	r3,r10,r12
 40209bc:	7085883a 	add	r2,r14,r2
 40209c0:	11000003 	ldbu	r4,0(r2)
 40209c4:	18004316 	blt	r3,zero,4020ad4 <auth_DEShash+0x7a8>
 40209c8:	58c5c83a 	sub	r2,r11,r3
 40209cc:	2085d83a 	sra	r2,r4,r2

		/* Find the correct value in the correct SBox[]
		 * and copy it into the destination.
		 * Left shift the nibble four bytes for even values of <i>.
		 */
		if (0 == (i % 2))
 40209d0:	68c0004c 	andi	r3,r13,1
		/* Extract the 6-bit integer from the source.
		 * This will be the lookup key within the SBox[i] array.
		 */
		for (Snum = j = 0, bitnum = (i * 6); j < 6; j++, bitnum++) {
			Snum <<= 1;
			Snum |= GETBIT( src, bitnum );
 40209d4:	1080004c 	andi	r2,r2,1
 40209d8:	2888b03a 	or	r4,r5,r2

		/* Find the correct value in the correct SBox[]
		 * and copy it into the destination.
		 * Left shift the nibble four bytes for even values of <i>.
		 */
		if (0 == (i % 2))
 40209dc:	183fa026 	beq	r3,zero,4020860 <auth_DEShash+0x534>
			dst[i / 2] |= ((SBox[i][Snum]) << 4);
		else
			dst[i / 2] |= SBox[i][Snum];
 40209e0:	6806d7fa 	srli	r3,r13,31
 40209e4:	8905883a 	add	r2,r17,r4
 40209e8:	11400003 	ldbu	r5,0(r2)
 40209ec:	1b47883a 	add	r3,r3,r13
 40209f0:	1807d07a 	srai	r3,r3,1
	for (i = 0; i < 4; i++)
		dst[i] = 0;

	/* For each set of six input bits...
	 */
	for (i = 0; i < 8; i++) {
 40209f4:	6b400044 	addi	r13,r13,1
 40209f8:	84001004 	addi	r16,r16,64
		 * Left shift the nibble four bytes for even values of <i>.
		 */
		if (0 == (i % 2))
			dst[i / 2] |= ((SBox[i][Snum]) << 4);
		else
			dst[i / 2] |= SBox[i][Snum];
 40209fc:	d8c9883a 	add	r4,sp,r3
 4020a00:	20800003 	ldbu	r2,0(r4)
	for (i = 0; i < 4; i++)
		dst[i] = 0;

	/* For each set of six input bits...
	 */
	for (i = 0; i < 8; i++) {
 4020a04:	8c401004 	addi	r17,r17,64
 4020a08:	39c00184 	addi	r7,r7,6
		 * Left shift the nibble four bytes for even values of <i>.
		 */
		if (0 == (i % 2))
			dst[i / 2] |= ((SBox[i][Snum]) << 4);
		else
			dst[i / 2] |= SBox[i][Snum];
 4020a0c:	1144b03a 	or	r2,r2,r5
 4020a10:	20800005 	stb	r2,0(r4)
	for (i = 0; i < 4; i++)
		dst[i] = 0;

	/* For each set of six input bits...
	 */
	for (i = 0; i < 8; i++) {
 4020a14:	00800204 	movi	r2,8
 4020a18:	68bfa11e 	bne	r13,r2,40208a0 <auth_DEShash+0x574>
	int i;

	/* Clear all bits in the destination.
	 */
	for (i = 0; i < mapsize; i++)
		dst[i] = 0;
 4020a1c:	000f883a 	mov	r7,zero
 4020a20:	020100f4 	movhi	r8,1027
 4020a24:	4234bb04 	addi	r8,r8,-11540
 4020a28:	030001c4 	movi	r12,7
 4020a2c:	02c00044 	movi	r11,1
 4020a30:	02a00034 	movhi	r10,32768
 4020a34:	528001c4 	addi	r10,r10,7
 4020a38:	037ffe04 	movi	r13,-8
 4020a3c:	02400804 	movi	r9,32
 4020a40:	d8000105 	stb	zero,4(sp)
 4020a44:	d8000145 	stb	zero,5(sp)
 4020a48:	d8000185 	stb	zero,6(sp)
 4020a4c:	d80001c5 	stb	zero,7(sp)
 4020a50:	00000a06 	br	4020a7c <auth_DEShash+0x750>

	/* Set destination bit if the mapped source bit it set. */
	bitcount = mapsize * 8;
	for (i = 0; i < bitcount; i++) {
		if (GETBIT( src, map[i] ))
			SETBIT( dst, i );
 4020a54:	1805d0fa 	srai	r2,r3,3
 4020a58:	7089883a 	add	r4,r14,r2
 4020a5c:	30001916 	blt	r6,zero,4020ac4 <auth_DEShash+0x798>
 4020a60:	6185c83a 	sub	r2,r12,r6
 4020a64:	20c00003 	ldbu	r3,0(r4)
 4020a68:	5884983a 	sll	r2,r11,r2
 4020a6c:	10c4b03a 	or	r2,r2,r3
 4020a70:	20800005 	stb	r2,0(r4)
	for (i = 0; i < mapsize; i++)
		dst[i] = 0;

	/* Set destination bit if the mapped source bit it set. */
	bitcount = mapsize * 8;
	for (i = 0; i < bitcount; i++) {
 4020a74:	39c00044 	addi	r7,r7,1
 4020a78:	3a403a26 	beq	r7,r9,4020b64 <auth_DEShash+0x838>
		if (GETBIT( src, map[i] ))
 4020a7c:	41000003 	ldbu	r4,0(r8)
			SETBIT( dst, i );
 4020a80:	3a8c703a 	and	r6,r7,r10
	for (i = 0; i < mapsize; i++)
		dst[i] = 0;

	/* Set destination bit if the mapped source bit it set. */
	bitcount = mapsize * 8;
	for (i = 0; i < bitcount; i++) {
 4020a84:	42000044 	addi	r8,r8,1
		if (GETBIT( src, map[i] ))
 4020a88:	200ad0fa 	srli	r5,r4,3
 4020a8c:	0108303a 	nor	r4,zero,r4
 4020a90:	210001cc 	andi	r4,r4,7
 4020a94:	d947883a 	add	r3,sp,r5
 4020a98:	18800003 	ldbu	r2,0(r3)
			SETBIT( dst, i );
 4020a9c:	3807883a 	mov	r3,r7
		dst[i] = 0;

	/* Set destination bit if the mapped source bit it set. */
	bitcount = mapsize * 8;
	for (i = 0; i < bitcount; i++) {
		if (GETBIT( src, map[i] ))
 4020aa0:	1105d83a 	sra	r2,r2,r4
 4020aa4:	1080004c 	andi	r2,r2,1
 4020aa8:	1005003a 	cmpeq	r2,r2,zero
 4020aac:	103ff11e 	bne	r2,zero,4020a74 <auth_DEShash+0x748>
			SETBIT( dst, i );
 4020ab0:	383fe80e 	bge	r7,zero,4020a54 <auth_DEShash+0x728>
 4020ab4:	38c001c4 	addi	r3,r7,7
 4020ab8:	1805d0fa 	srai	r2,r3,3
 4020abc:	7089883a 	add	r4,r14,r2
 4020ac0:	303fe70e 	bge	r6,zero,4020a60 <auth_DEShash+0x734>
 4020ac4:	31bfffc4 	addi	r6,r6,-1
 4020ac8:	334cb03a 	or	r6,r6,r13
 4020acc:	31800044 	addi	r6,r6,1
 4020ad0:	003fe306 	br	4020a60 <auth_DEShash+0x734>
		/* Extract the 6-bit integer from the source.
		 * This will be the lookup key within the SBox[i] array.
		 */
		for (Snum = j = 0, bitnum = (i * 6); j < 6; j++, bitnum++) {
			Snum <<= 1;
			Snum |= GETBIT( src, bitnum );
 4020ad4:	18ffffc4 	addi	r3,r3,-1
 4020ad8:	1c86b03a 	or	r3,r3,r18
 4020adc:	18c00044 	addi	r3,r3,1
 4020ae0:	003fb906 	br	40209c8 <auth_DEShash+0x69c>
 4020ae4:	50c001c4 	addi	r3,r10,7
 4020ae8:	003fb206 	br	40209b4 <auth_DEShash+0x688>
 4020aec:	18ffffc4 	addi	r3,r3,-1
 4020af0:	1c86b03a 	or	r3,r3,r18
 4020af4:	18c00044 	addi	r3,r3,1
 4020af8:	003fa706 	br	4020998 <auth_DEShash+0x66c>
 4020afc:	38c002c4 	addi	r3,r7,11
 4020b00:	003fa006 	br	4020984 <auth_DEShash+0x658>
 4020b04:	18ffffc4 	addi	r3,r3,-1
 4020b08:	1c86b03a 	or	r3,r3,r18
 4020b0c:	18c00044 	addi	r3,r3,1
 4020b10:	003f9506 	br	4020968 <auth_DEShash+0x63c>
 4020b14:	38c00284 	addi	r3,r7,10
 4020b18:	003f8e06 	br	4020954 <auth_DEShash+0x628>
 4020b1c:	18ffffc4 	addi	r3,r3,-1
 4020b20:	1c86b03a 	or	r3,r3,r18
 4020b24:	18c00044 	addi	r3,r3,1
 4020b28:	003f8306 	br	4020938 <auth_DEShash+0x60c>
 4020b2c:	38c00244 	addi	r3,r7,9
 4020b30:	003f7c06 	br	4020924 <auth_DEShash+0x5f8>
 4020b34:	18ffffc4 	addi	r3,r3,-1
 4020b38:	1c86b03a 	or	r3,r3,r18
 4020b3c:	18c00044 	addi	r3,r3,1
 4020b40:	003f7106 	br	4020908 <auth_DEShash+0x5dc>
 4020b44:	38c00204 	addi	r3,r7,8
 4020b48:	003f6a06 	br	40208f4 <auth_DEShash+0x5c8>
 4020b4c:	18ffffc4 	addi	r3,r3,-1
 4020b50:	1c86b03a 	or	r3,r3,r18
 4020b54:	18c00044 	addi	r3,r3,1
 4020b58:	003f5f06 	br	40208d8 <auth_DEShash+0x5ac>
 4020b5c:	388001c4 	addi	r2,r7,7
 4020b60:	003f5606 	br	40208bc <auth_DEShash+0x590>

{
	int i;

	for (i = 0; i < count; i++)
		dst[i] = a[i] ^ b[i];
 4020b64:	d9400943 	ldbu	r5,37(sp)
 4020b68:	d8800103 	ldbu	r2,4(sp)
 4020b6c:	d9c00983 	ldbu	r7,38(sp)
 4020b70:	da0009c3 	ldbu	r8,39(sp)
 4020b74:	2884f03a 	xor	r2,r5,r2
 4020b78:	da400a03 	ldbu	r9,40(sp)
 4020b7c:	d8800005 	stb	r2,0(sp)
 4020b80:	d9000143 	ldbu	r4,5(sp)
 4020b84:	d8c00183 	ldbu	r3,6(sp)
 4020b88:	d88001c3 	ldbu	r2,7(sp)
 4020b8c:	3908f03a 	xor	r4,r7,r4
 4020b90:	40c6f03a 	xor	r3,r8,r3
 4020b94:	4884f03a 	xor	r2,r9,r2

		/* The previous R becomes the new L,
		 * and Rn is moved into R ready for the next round.
		 */
		for (j = 0; j < 4; j++) {
			L[j] = R[j];
 4020b98:	d9400a43 	ldbu	r5,41(sp)
 4020b9c:	d9c00a83 	ldbu	r7,42(sp)
 4020ba0:	da000ac3 	ldbu	r8,43(sp)
 4020ba4:	da400b03 	ldbu	r9,44(sp)
			R[j] = Rn[j];
 4020ba8:	d9800003 	ldbu	r6,0(sp)
 4020bac:	ad400044 	addi	r21,r21,1
 4020bb0:	d9000a85 	stb	r4,42(sp)
 4020bb4:	d8c00ac5 	stb	r3,43(sp)
 4020bb8:	d8800b05 	stb	r2,44(sp)

{
	int i;

	for (i = 0; i < count; i++)
		dst[i] = a[i] ^ b[i];
 4020bbc:	d9000045 	stb	r4,1(sp)
 4020bc0:	d8c00085 	stb	r3,2(sp)
 4020bc4:	d88000c5 	stb	r2,3(sp)

		/* The previous R becomes the new L,
		 * and Rn is moved into R ready for the next round.
		 */
		for (j = 0; j < 4; j++) {
			L[j] = R[j];
 4020bc8:	d9400945 	stb	r5,37(sp)
			R[j] = Rn[j];
 4020bcc:	d9800a45 	stb	r6,41(sp)

		/* The previous R becomes the new L,
		 * and Rn is moved into R ready for the next round.
		 */
		for (j = 0; j < 4; j++) {
			L[j] = R[j];
 4020bd0:	d9c00985 	stb	r7,38(sp)
 4020bd4:	da0009c5 	stb	r8,39(sp)
 4020bd8:	da400a05 	stb	r9,40(sp)
#endif

	/* DES encryption proceeds in 16 rounds.
	 * The stuff inside the loop is known in the literature as "function f".
	 */
	for (i = 0; i < 16; i++)
 4020bdc:	adfe671e 	bne	r21,r23,402057c <auth_DEShash+0x250>
#else
	// since not doing FP these must be swapped
	dst[0] = D[4];
	dst[1] = D[5];
	dst[2] = D[6];
	dst[3] = D[7];
 4020be0:	b08000c5 	stb	r2,3(r22)
		printf("%02x ", dst[j]);
	}
	printf("\n");
#endif
	return (dst);
} /* auth_DEShash */
 4020be4:	b005883a 	mov	r2,r22
	// Skipping FP
#ifdef IP_FP_ON
	Permute( dst, D, FinalPermuteMap, 8 );
#else
	// since not doing FP these must be swapped
	dst[0] = D[4];
 4020be8:	b1800005 	stb	r6,0(r22)
	dst[1] = D[5];
 4020bec:	b1000045 	stb	r4,1(r22)
	dst[2] = D[6];
 4020bf0:	b0c00085 	stb	r3,2(r22)
	dst[3] = D[7];
	dst[4] = D[0];
 4020bf4:	b1400105 	stb	r5,4(r22)
	dst[5] = D[1];
 4020bf8:	b1c00145 	stb	r7,5(r22)
	dst[6] = D[2];
 4020bfc:	b2000185 	stb	r8,6(r22)
	dst[7] = D[3];
 4020c00:	b24001c5 	stb	r9,7(r22)
		printf("%02x ", dst[j]);
	}
	printf("\n");
#endif
	return (dst);
} /* auth_DEShash */
 4020c04:	ddc01317 	ldw	r23,76(sp)
 4020c08:	dd801217 	ldw	r22,72(sp)
 4020c0c:	dd401117 	ldw	r21,68(sp)
 4020c10:	dd001017 	ldw	r20,64(sp)
 4020c14:	dcc00f17 	ldw	r19,60(sp)
 4020c18:	dc800e17 	ldw	r18,56(sp)
 4020c1c:	dc400d17 	ldw	r17,52(sp)
 4020c20:	dc000c17 	ldw	r16,48(sp)
 4020c24:	dec01404 	addi	sp,sp,80
 4020c28:	f800283a 	ret

04020c2c <aes_subword>:

	return ctx;
}

inline unsigned long aes_subword(unsigned long w)
{
 4020c2c:	20bfc00c 	andi	r2,r4,65280
 4020c30:	20c03fec 	andhi	r3,r4,255
 4020c34:	200ed63a 	srli	r7,r4,24
 4020c38:	1004d23a 	srli	r2,r2,8
 4020c3c:	1806d43a 	srli	r3,r3,16
 4020c40:	014100f4 	movhi	r5,1027
 4020c44:	2944b904 	addi	r5,r5,4836
 4020c48:	1145883a 	add	r2,r2,r5
 4020c4c:	394f883a 	add	r7,r7,r5
 4020c50:	1947883a 	add	r3,r3,r5
 4020c54:	12400003 	ldbu	r9,0(r2)
 4020c58:	19800003 	ldbu	r6,0(r3)
 4020c5c:	3a000003 	ldbu	r8,0(r7)
 4020c60:	21003fcc 	andi	r4,r4,255
 4020c64:	2149883a 	add	r4,r4,r5
 4020c68:	20800003 	ldbu	r2,0(r4)
 4020c6c:	4812923a 	slli	r9,r9,8
 4020c70:	4010963a 	slli	r8,r8,24
 4020c74:	300c943a 	slli	r6,r6,16
 4020c78:	1244b03a 	or	r2,r2,r9
 4020c7c:	320cb03a 	or	r6,r6,r8
	return g_aes_sbox[w & 0x000000ff] |
		(g_aes_sbox[(w & 0x0000ff00) >> 8] << 8) |
		(g_aes_sbox[(w & 0x00ff0000) >> 16] << 16) |
		(g_aes_sbox[(w & 0xff000000) >> 24] << 24);
}
 4020c80:	1184b03a 	or	r2,r2,r6
 4020c84:	f800283a 	ret

04020c88 <aes_rotword>:

inline unsigned long aes_rotword(unsigned long w)
{
 4020c88:	20ffc00c 	andi	r3,r4,65280
 4020c8c:	1806d23a 	srli	r3,r3,8
 4020c90:	20bfffec 	andhi	r2,r4,65535
 4020c94:	2008963a 	slli	r4,r4,24
 4020c98:	1004d23a 	srli	r2,r2,8
 4020c9c:	20c8b03a 	or	r4,r4,r3
	// Should not depend on architecture, but this is only a POC
	return ((w & 0x000000ff) << 24) |
		((w & 0x0000ff00) >> 8) |
		((w & 0x00ff0000) >> 8) |
		((w & 0xff000000) >> 8);
}
 4020ca0:	2084b03a 	or	r2,r4,r2
 4020ca4:	f800283a 	ret

04020ca8 <aes_keyexpansion>:
	unsigned long temp;
	unsigned long rcon;
	register int i;

	rcon = 0x00000001;
	for(i = ctx->kcol; i < (4*(ctx->rounds+1)); i++) {
 4020ca8:	20800517 	ldw	r2,20(r4)
		((w & 0x00ff0000) >> 8) |
		((w & 0xff000000) >> 8);
}

void aes_keyexpansion(aes_ctx_t *ctx)
{
 4020cac:	defff704 	addi	sp,sp,-36
 4020cb0:	dc400115 	stw	r17,4(sp)
	unsigned long temp;
	unsigned long rcon;
	register int i;

	rcon = 0x00000001;
	for(i = ctx->kcol; i < (4*(ctx->rounds+1)); i++) {
 4020cb4:	1085883a 	add	r2,r2,r2
 4020cb8:	24400417 	ldw	r17,16(r4)
 4020cbc:	1085883a 	add	r2,r2,r2
 4020cc0:	11400104 	addi	r5,r2,4
		((w & 0x00ff0000) >> 8) |
		((w & 0xff000000) >> 8);
}

void aes_keyexpansion(aes_ctx_t *ctx)
{
 4020cc4:	dd000415 	stw	r20,16(sp)
 4020cc8:	dfc00815 	stw	ra,32(sp)
 4020ccc:	ddc00715 	stw	r23,28(sp)
 4020cd0:	dd800615 	stw	r22,24(sp)
 4020cd4:	dd400515 	stw	r21,20(sp)
 4020cd8:	dcc00315 	stw	r19,12(sp)
 4020cdc:	dc800215 	stw	r18,8(sp)
 4020ce0:	dc000015 	stw	r16,0(sp)
	unsigned long temp;
	unsigned long rcon;
	register int i;

	rcon = 0x00000001;
	for(i = ctx->kcol; i < (4*(ctx->rounds+1)); i++) {
 4020ce4:	8829883a 	mov	r20,r17
 4020ce8:	8940782e 	bgeu	r17,r5,4020ecc <aes_keyexpansion+0x224>
 4020cec:	88ffff24 	muli	r3,r17,-4
 4020cf0:	8c45883a 	add	r2,r17,r17
 4020cf4:	1085883a 	add	r2,r2,r2
 4020cf8:	1907883a 	add	r3,r3,r4
 4020cfc:	10c7883a 	add	r3,r2,r3
 4020d00:	10800504 	addi	r2,r2,20
 4020d04:	20a7883a 	add	r19,r4,r2
 4020d08:	282f883a 	mov	r23,r5
 4020d0c:	1d400604 	addi	r21,r3,24
 4020d10:	04800044 	movi	r18,1
 4020d14:	058100f4 	movhi	r22,1027
 4020d18:	b584b904 	addi	r22,r22,4836
 4020d1c:	00004206 	br	4020e28 <aes_keyexpansion+0x180>
		temp = ctx->keysched[i-1];
		if(!(i%ctx->kcol)) {
 4020d20:	8804913a 	slli	r2,r17,4
 4020d24:	00c100f4 	movhi	r3,1027
 4020d28:	18f72704 	addi	r3,r3,-9060
 4020d2c:	1504b03a 	or	r2,r2,r20
 4020d30:	10c5883a 	add	r2,r2,r3
 4020d34:	10800003 	ldbu	r2,0(r2)
 4020d38:	1505383a 	mul	r2,r2,r20
 4020d3c:	8887c83a 	sub	r3,r17,r2
 4020d40:	1800431e 	bne	r3,zero,4020e50 <aes_keyexpansion+0x1a8>
inline unsigned long aes_rotword(unsigned long w)
{
	// May seem a bit different from the spec
	// It was changed because unsigned long is represented with little-endian convention on x86
	// Should not depend on architecture, but this is only a POC
	return ((w & 0x000000ff) << 24) |
 4020d44:	80ffc00c 	andi	r3,r16,65280
 4020d48:	813fffec 	andhi	r4,r16,65535
 4020d4c:	1806d23a 	srli	r3,r3,8
 4020d50:	8004963a 	slli	r2,r16,24
 4020d54:	2008d23a 	srli	r4,r4,8
 4020d58:	10c4b03a 	or	r2,r2,r3
 4020d5c:	1104b03a 	or	r2,r2,r4

	rcon = 0x00000001;
	for(i = ctx->kcol; i < (4*(ctx->rounds+1)); i++) {
		temp = ctx->keysched[i-1];
		if(!(i%ctx->kcol)) {
			temp = aes_subword(aes_rotword(temp)) ^ rcon;
 4020d60:	10ffc00c 	andi	r3,r2,65280
 4020d64:	11003fec 	andhi	r4,r2,255
 4020d68:	100ad63a 	srli	r5,r2,24
 4020d6c:	1806d23a 	srli	r3,r3,8
 4020d70:	2008d43a 	srli	r4,r4,16
 4020d74:	2d8b883a 	add	r5,r5,r22
 4020d78:	1d87883a 	add	r3,r3,r22
 4020d7c:	2589883a 	add	r4,r4,r22
 4020d80:	1a000003 	ldbu	r8,0(r3)
 4020d84:	21800003 	ldbu	r6,0(r4)
 4020d88:	29c00003 	ldbu	r7,0(r5)
 4020d8c:	10803fcc 	andi	r2,r2,255
 4020d90:	1585883a 	add	r2,r2,r22
 4020d94:	10c00003 	ldbu	r3,0(r2)
 4020d98:	4010923a 	slli	r8,r8,8
 4020d9c:	300c943a 	slli	r6,r6,16
 4020da0:	380e963a 	slli	r7,r7,24
 4020da4:	1a06b03a 	or	r3,r3,r8
 4020da8:	31ccb03a 	or	r6,r6,r7
 4020dac:	1986b03a 	or	r3,r3,r6
 4020db0:	1ca0f03a 	xor	r16,r3,r18
			rcon = aes_mul(rcon, 2);
 4020db4:	90001526 	beq	r18,zero,4020e0c <aes_keyexpansion+0x164>
 4020db8:	010100f4 	movhi	r4,1027
 4020dbc:	2104f904 	addi	r4,r4,5092
 4020dc0:	9105883a 	add	r2,r18,r4
 4020dc4:	11400003 	ldbu	r5,0(r2)
 4020dc8:	20c00083 	ldbu	r3,2(r4)
 4020dcc:	008003c4 	movi	r2,15
 4020dd0:	28e5883a 	add	r18,r5,r3
 4020dd4:	91003fd4 	ori	r4,r18,255
 4020dd8:	11004736 	bltu	r2,r4,4020ef8 <aes_keyexpansion+0x250>
 4020ddc:	9004913a 	slli	r2,r18,4
 4020de0:	00c100f4 	movhi	r3,1027
 4020de4:	18f72704 	addi	r3,r3,-9060
 4020de8:	10803fd4 	ori	r2,r2,255
 4020dec:	10c5883a 	add	r2,r2,r3
 4020df0:	10800003 	ldbu	r2,0(r2)
 4020df4:	10c03fe4 	muli	r3,r2,255
 4020df8:	008100f4 	movhi	r2,1027
 4020dfc:	10843904 	addi	r2,r2,4324
 4020e00:	90c7c83a 	sub	r3,r18,r3
 4020e04:	10c5883a 	add	r2,r2,r3
 4020e08:	14800003 	ldbu	r18,0(r2)
		} else if(ctx->kcol > 6 && i%ctx->kcol == 4)
			temp = aes_subword(temp);
		ctx->keysched[i] = ctx->keysched[i-ctx->kcol] ^ temp;
 4020e0c:	a8800017 	ldw	r2,0(r21)
	unsigned long temp;
	unsigned long rcon;
	register int i;

	rcon = 0x00000001;
	for(i = ctx->kcol; i < (4*(ctx->rounds+1)); i++) {
 4020e10:	8c400044 	addi	r17,r17,1
 4020e14:	ad400104 	addi	r21,r21,4
		if(!(i%ctx->kcol)) {
			temp = aes_subword(aes_rotword(temp)) ^ rcon;
			rcon = aes_mul(rcon, 2);
		} else if(ctx->kcol > 6 && i%ctx->kcol == 4)
			temp = aes_subword(temp);
		ctx->keysched[i] = ctx->keysched[i-ctx->kcol] ^ temp;
 4020e18:	8084f03a 	xor	r2,r16,r2
 4020e1c:	98800115 	stw	r2,4(r19)
	unsigned long temp;
	unsigned long rcon;
	register int i;

	rcon = 0x00000001;
	for(i = ctx->kcol; i < (4*(ctx->rounds+1)); i++) {
 4020e20:	9cc00104 	addi	r19,r19,4
 4020e24:	8dc0292e 	bgeu	r17,r23,4020ecc <aes_keyexpansion+0x224>
		temp = ctx->keysched[i-1];
		if(!(i%ctx->kcol)) {
 4020e28:	8d06b03a 	or	r3,r17,r20
 4020e2c:	008003c4 	movi	r2,15
	unsigned long rcon;
	register int i;

	rcon = 0x00000001;
	for(i = ctx->kcol; i < (4*(ctx->rounds+1)); i++) {
		temp = ctx->keysched[i-1];
 4020e30:	9c000017 	ldw	r16,0(r19)
		if(!(i%ctx->kcol)) {
 4020e34:	10ffba2e 	bgeu	r2,r3,4020d20 <aes_keyexpansion+0x78>
 4020e38:	8809883a 	mov	r4,r17
 4020e3c:	a00b883a 	mov	r5,r20
 4020e40:	40265d40 	call	40265d4 <__divsi3>
 4020e44:	1505383a 	mul	r2,r2,r20
 4020e48:	8887c83a 	sub	r3,r17,r2
 4020e4c:	183fbd26 	beq	r3,zero,4020d44 <aes_keyexpansion+0x9c>
			temp = aes_subword(aes_rotword(temp)) ^ rcon;
			rcon = aes_mul(rcon, 2);
		} else if(ctx->kcol > 6 && i%ctx->kcol == 4)
 4020e50:	00800184 	movi	r2,6
 4020e54:	153fed0e 	bge	r2,r20,4020e0c <aes_keyexpansion+0x164>
 4020e58:	00800104 	movi	r2,4
 4020e5c:	18bfeb1e 	bne	r3,r2,4020e0c <aes_keyexpansion+0x164>
	return ctx;
}

inline unsigned long aes_subword(unsigned long w)
{
	return g_aes_sbox[w & 0x000000ff] |
 4020e60:	80bfc00c 	andi	r2,r16,65280
 4020e64:	80c03fec 	andhi	r3,r16,255
 4020e68:	800ad63a 	srli	r5,r16,24
 4020e6c:	1004d23a 	srli	r2,r2,8
 4020e70:	1806d43a 	srli	r3,r3,16
 4020e74:	2d8b883a 	add	r5,r5,r22
 4020e78:	1585883a 	add	r2,r2,r22
 4020e7c:	1d87883a 	add	r3,r3,r22
 4020e80:	11c00003 	ldbu	r7,0(r2)
 4020e84:	19000003 	ldbu	r4,0(r3)
 4020e88:	29800003 	ldbu	r6,0(r5)
 4020e8c:	80803fcc 	andi	r2,r16,255
 4020e90:	1585883a 	add	r2,r2,r22
 4020e94:	10c00003 	ldbu	r3,0(r2)
 4020e98:	380e923a 	slli	r7,r7,8
 4020e9c:	2008943a 	slli	r4,r4,16
 4020ea0:	300c963a 	slli	r6,r6,24
		if(!(i%ctx->kcol)) {
			temp = aes_subword(aes_rotword(temp)) ^ rcon;
			rcon = aes_mul(rcon, 2);
		} else if(ctx->kcol > 6 && i%ctx->kcol == 4)
			temp = aes_subword(temp);
		ctx->keysched[i] = ctx->keysched[i-ctx->kcol] ^ temp;
 4020ea4:	a8800017 	ldw	r2,0(r21)
	return ctx;
}

inline unsigned long aes_subword(unsigned long w)
{
	return g_aes_sbox[w & 0x000000ff] |
 4020ea8:	19c6b03a 	or	r3,r3,r7
 4020eac:	2188b03a 	or	r4,r4,r6
 4020eb0:	1920b03a 	or	r16,r3,r4
		if(!(i%ctx->kcol)) {
			temp = aes_subword(aes_rotword(temp)) ^ rcon;
			rcon = aes_mul(rcon, 2);
		} else if(ctx->kcol > 6 && i%ctx->kcol == 4)
			temp = aes_subword(temp);
		ctx->keysched[i] = ctx->keysched[i-ctx->kcol] ^ temp;
 4020eb4:	8084f03a 	xor	r2,r16,r2
	unsigned long temp;
	unsigned long rcon;
	register int i;

	rcon = 0x00000001;
	for(i = ctx->kcol; i < (4*(ctx->rounds+1)); i++) {
 4020eb8:	8c400044 	addi	r17,r17,1
		if(!(i%ctx->kcol)) {
			temp = aes_subword(aes_rotword(temp)) ^ rcon;
			rcon = aes_mul(rcon, 2);
		} else if(ctx->kcol > 6 && i%ctx->kcol == 4)
			temp = aes_subword(temp);
		ctx->keysched[i] = ctx->keysched[i-ctx->kcol] ^ temp;
 4020ebc:	98800115 	stw	r2,4(r19)
	unsigned long temp;
	unsigned long rcon;
	register int i;

	rcon = 0x00000001;
	for(i = ctx->kcol; i < (4*(ctx->rounds+1)); i++) {
 4020ec0:	ad400104 	addi	r21,r21,4
 4020ec4:	9cc00104 	addi	r19,r19,4
 4020ec8:	8dffd736 	bltu	r17,r23,4020e28 <aes_keyexpansion+0x180>
			rcon = aes_mul(rcon, 2);
		} else if(ctx->kcol > 6 && i%ctx->kcol == 4)
			temp = aes_subword(temp);
		ctx->keysched[i] = ctx->keysched[i-ctx->kcol] ^ temp;
	}
}
 4020ecc:	dfc00817 	ldw	ra,32(sp)
 4020ed0:	ddc00717 	ldw	r23,28(sp)
 4020ed4:	dd800617 	ldw	r22,24(sp)
 4020ed8:	dd400517 	ldw	r21,20(sp)
 4020edc:	dd000417 	ldw	r20,16(sp)
 4020ee0:	dcc00317 	ldw	r19,12(sp)
 4020ee4:	dc800217 	ldw	r18,8(sp)
 4020ee8:	dc400117 	ldw	r17,4(sp)
 4020eec:	dc000017 	ldw	r16,0(sp)
 4020ef0:	dec00904 	addi	sp,sp,36
 4020ef4:	f800283a 	ret
	rcon = 0x00000001;
	for(i = ctx->kcol; i < (4*(ctx->rounds+1)); i++) {
		temp = ctx->keysched[i-1];
		if(!(i%ctx->kcol)) {
			temp = aes_subword(aes_rotword(temp)) ^ rcon;
			rcon = aes_mul(rcon, 2);
 4020ef8:	9009883a 	mov	r4,r18
 4020efc:	01403fc4 	movi	r5,255
 4020f00:	40265d40 	call	40265d4 <__divsi3>
 4020f04:	003fbb06 	br	4020df4 <aes_keyexpansion+0x14c>

04020f08 <aes_mul_manual>:
	register unsigned short ac;
	register unsigned char ret;

	ac = a;
	ret = 0;
	while(b) {
 4020f08:	29403fcc 	andi	r5,r5,255
 4020f0c:	28001026 	beq	r5,zero,4020f50 <aes_mul_manual+0x48>
inline unsigned char aes_mul_manual(unsigned char a, unsigned char b)
{
	register unsigned short ac;
	register unsigned char ret;

	ac = a;
 4020f10:	21003fcc 	andi	r4,r4,255
 4020f14:	000d883a 	mov	r6,zero
	ret = 0;
	while(b) {
		if(b & 0x01)
 4020f18:	2880004c 	andi	r2,r5,1
 4020f1c:	1005003a 	cmpeq	r2,r2,zero
			ret ^= ac;
		ac <<= 1;
 4020f20:	2107883a 	add	r3,r4,r4
	register unsigned char ret;

	ac = a;
	ret = 0;
	while(b) {
		if(b & 0x01)
 4020f24:	1000011e 	bne	r2,zero,4020f2c <aes_mul_manual+0x24>
			ret ^= ac;
 4020f28:	310cf03a 	xor	r6,r6,r4
		ac <<= 1;
 4020f2c:	1809883a 	mov	r4,r3
		b >>= 1;
		if(ac & 0x0100)
 4020f30:	2080400c 	andi	r2,r4,256
	ret = 0;
	while(b) {
		if(b & 0x01)
			ret ^= ac;
		ac <<= 1;
		b >>= 1;
 4020f34:	280ad07a 	srli	r5,r5,1
		if(ac & 0x0100)
 4020f38:	10000126 	beq	r2,zero,4020f40 <aes_mul_manual+0x38>
			ac ^= AES_RPOL;
 4020f3c:	190046dc 	xori	r4,r3,283
	register unsigned short ac;
	register unsigned char ret;

	ac = a;
	ret = 0;
	while(b) {
 4020f40:	29403fcc 	andi	r5,r5,255
 4020f44:	283ff41e 	bne	r5,zero,4020f18 <aes_mul_manual+0x10>
 4020f48:	30803fcc 	andi	r2,r6,255
		if(ac & 0x0100)
			ac ^= AES_RPOL;
	}

	return ret;
}
 4020f4c:	f800283a 	ret
	register unsigned short ac;
	register unsigned char ret;

	ac = a;
	ret = 0;
	while(b) {
 4020f50:	0005883a 	mov	r2,zero
 4020f54:	f800283a 	ret

04020f58 <aes_subbytes>:
	for(i = 0; i < 16; i++) {
		int x, y;

		x = i & 0x03;
		y = i >> 2;
		ctx->state[x][y] = g_aes_sbox[ctx->state[x][y]];
 4020f58:	20800003 	ldbu	r2,0(r4)
 4020f5c:	014100f4 	movhi	r5,1027
 4020f60:	2944b904 	addi	r5,r5,4836
 4020f64:	20c00103 	ldbu	r3,4(r4)
 4020f68:	1145883a 	add	r2,r2,r5
 4020f6c:	11800003 	ldbu	r6,0(r2)
 4020f70:	1947883a 	add	r3,r3,r5
 4020f74:	20800203 	ldbu	r2,8(r4)
 4020f78:	21800005 	stb	r6,0(r4)
 4020f7c:	19c00003 	ldbu	r7,0(r3)
 4020f80:	1145883a 	add	r2,r2,r5
 4020f84:	20c00303 	ldbu	r3,12(r4)
 4020f88:	21c00105 	stb	r7,4(r4)
 4020f8c:	11800003 	ldbu	r6,0(r2)
 4020f90:	1947883a 	add	r3,r3,r5
 4020f94:	20800043 	ldbu	r2,1(r4)
 4020f98:	21800205 	stb	r6,8(r4)
 4020f9c:	19c00003 	ldbu	r7,0(r3)
 4020fa0:	1145883a 	add	r2,r2,r5
 4020fa4:	20c00143 	ldbu	r3,5(r4)
 4020fa8:	21c00305 	stb	r7,12(r4)
 4020fac:	11800003 	ldbu	r6,0(r2)
 4020fb0:	1947883a 	add	r3,r3,r5
 4020fb4:	20800243 	ldbu	r2,9(r4)
 4020fb8:	21800045 	stb	r6,1(r4)
 4020fbc:	19c00003 	ldbu	r7,0(r3)
 4020fc0:	1145883a 	add	r2,r2,r5
 4020fc4:	20c00343 	ldbu	r3,13(r4)
 4020fc8:	21c00145 	stb	r7,5(r4)
 4020fcc:	11800003 	ldbu	r6,0(r2)
 4020fd0:	1947883a 	add	r3,r3,r5
 4020fd4:	20800083 	ldbu	r2,2(r4)
 4020fd8:	21800245 	stb	r6,9(r4)
 4020fdc:	19c00003 	ldbu	r7,0(r3)
 4020fe0:	1145883a 	add	r2,r2,r5
 4020fe4:	20c00183 	ldbu	r3,6(r4)
 4020fe8:	21c00345 	stb	r7,13(r4)
 4020fec:	11800003 	ldbu	r6,0(r2)
 4020ff0:	1947883a 	add	r3,r3,r5
 4020ff4:	20800283 	ldbu	r2,10(r4)
 4020ff8:	21800085 	stb	r6,2(r4)
 4020ffc:	19c00003 	ldbu	r7,0(r3)
 4021000:	1145883a 	add	r2,r2,r5
 4021004:	20c00383 	ldbu	r3,14(r4)
 4021008:	21c00185 	stb	r7,6(r4)
 402100c:	11800003 	ldbu	r6,0(r2)
 4021010:	1947883a 	add	r3,r3,r5
 4021014:	21800285 	stb	r6,10(r4)
 4021018:	18800003 	ldbu	r2,0(r3)
 402101c:	20c000c3 	ldbu	r3,3(r4)
 4021020:	220002c3 	ldbu	r8,11(r4)
 4021024:	20800385 	stb	r2,14(r4)
 4021028:	1947883a 	add	r3,r3,r5
 402102c:	19c00003 	ldbu	r7,0(r3)
 4021030:	208001c3 	ldbu	r2,7(r4)
 4021034:	4151883a 	add	r8,r8,r5
 4021038:	21c000c5 	stb	r7,3(r4)
 402103c:	1145883a 	add	r2,r2,r5
 4021040:	11800003 	ldbu	r6,0(r2)
 4021044:	20c003c3 	ldbu	r3,15(r4)
 4021048:	218001c5 	stb	r6,7(r4)
 402104c:	41c00003 	ldbu	r7,0(r8)
 4021050:	1947883a 	add	r3,r3,r5
 4021054:	21c002c5 	stb	r7,11(r4)
 4021058:	18800003 	ldbu	r2,0(r3)
 402105c:	208003c5 	stb	r2,15(r4)
	}
}
 4021060:	f800283a 	ret

04021064 <aes_addroundkey>:

	memcpy(ctx->state, nstate, sizeof(ctx->state));
}

void aes_addroundkey(aes_ctx_t *ctx, int round)
{
 4021064:	294b883a 	add	r5,r5,r5
 4021068:	294b883a 	add	r5,r5,r5
	for(i = 0; i < 16; i++) {
		int x, y;

		x = i & 0x03;
		y = i >> 2;
		ctx->state[x][y] = ctx->state[x][y] ^
 402106c:	28c00044 	addi	r3,r5,1
 4021070:	29800084 	addi	r6,r5,2
 4021074:	29c000c4 	addi	r7,r5,3
 4021078:	18c7883a 	add	r3,r3,r3
 402107c:	318d883a 	add	r6,r6,r6
 4021080:	294b883a 	add	r5,r5,r5
 4021084:	39cf883a 	add	r7,r7,r7
 4021088:	294b883a 	add	r5,r5,r5
 402108c:	18c7883a 	add	r3,r3,r3
 4021090:	318d883a 	add	r6,r6,r6
 4021094:	00800604 	movi	r2,24
 4021098:	290b883a 	add	r5,r5,r4
 402109c:	1907883a 	add	r3,r3,r4
 40210a0:	310d883a 	add	r6,r6,r4
 40210a4:	39cf883a 	add	r7,r7,r7
 40210a8:	288b883a 	add	r5,r5,r2
 40210ac:	1887883a 	add	r3,r3,r2
 40210b0:	308d883a 	add	r6,r6,r2
 40210b4:	390f883a 	add	r7,r7,r4
 40210b8:	2a000017 	ldw	r8,0(r5)
 40210bc:	1a400017 	ldw	r9,0(r3)
 40210c0:	32800017 	ldw	r10,0(r6)
 40210c4:	388f883a 	add	r7,r7,r2
 40210c8:	3ac00017 	ldw	r11,0(r7)

	memcpy(ctx->state, nstate, sizeof(ctx->state));
}

void aes_addroundkey(aes_ctx_t *ctx, int round)
{
 40210cc:	defff704 	addi	sp,sp,-36
	for(i = 0; i < 16; i++) {
		int x, y;

		x = i & 0x03;
		y = i >> 2;
		ctx->state[x][y] = ctx->state[x][y] ^
 40210d0:	00ffc014 	movui	r3,65280
 40210d4:	01403ff4 	movhi	r5,255

	memcpy(ctx->state, nstate, sizeof(ctx->state));
}

void aes_addroundkey(aes_ctx_t *ctx, int round)
{
 40210d8:	dcc00315 	stw	r19,12(sp)
 40210dc:	dc800215 	stw	r18,8(sp)
 40210e0:	dc400115 	stw	r17,4(sp)
	for(i = 0; i < 16; i++) {
		int x, y;

		x = i & 0x03;
		y = i >> 2;
		ctx->state[x][y] = ctx->state[x][y] ^
 40210e4:	48da703a 	and	r13,r9,r3
 40210e8:	40a2d83a 	srl	r17,r8,r2
 40210ec:	48a4d83a 	srl	r18,r9,r2
 40210f0:	50a6d83a 	srl	r19,r10,r2
 40210f4:	00803fc4 	movi	r2,255

	memcpy(ctx->state, nstate, sizeof(ctx->state));
}

void aes_addroundkey(aes_ctx_t *ctx, int round)
{
 40210f8:	dc000015 	stw	r16,0(sp)
	for(i = 0; i < 16; i++) {
		int x, y;

		x = i & 0x03;
		y = i >> 2;
		ctx->state[x][y] = ctx->state[x][y] ^
 40210fc:	40ce703a 	and	r7,r8,r3
 4021100:	58e0703a 	and	r16,r11,r3
 4021104:	4158703a 	and	r12,r8,r5
 4021108:	495c703a 	and	r14,r9,r5
 402110c:	515e703a 	and	r15,r10,r5
 4021110:	588c703a 	and	r6,r11,r2
 4021114:	50c6703a 	and	r3,r10,r3
 4021118:	4090703a 	and	r8,r8,r2
 402111c:	4892703a 	and	r9,r9,r2
 4021120:	5094703a 	and	r10,r10,r2
 4021124:	681ad23a 	srli	r13,r13,8
 4021128:	20800143 	ldbu	r2,5(r4)
 402112c:	701cd43a 	srli	r14,r14,16
 4021130:	1806d23a 	srli	r3,r3,8
 4021134:	689af03a 	xor	r13,r13,r2
 4021138:	20800243 	ldbu	r2,9(r4)
 402113c:	781ed43a 	srli	r15,r15,16

	memcpy(ctx->state, nstate, sizeof(ctx->state));
}

void aes_addroundkey(aes_ctx_t *ctx, int round)
{
 4021140:	df000815 	stw	fp,32(sp)
	for(i = 0; i < 16; i++) {
		int x, y;

		x = i & 0x03;
		y = i >> 2;
		ctx->state[x][y] = ctx->state[x][y] ^
 4021144:	709cf03a 	xor	r14,r14,r2
 4021148:	20800343 	ldbu	r2,13(r4)
 402114c:	27000043 	ldbu	fp,1(r4)

	memcpy(ctx->state, nstate, sizeof(ctx->state));
}

void aes_addroundkey(aes_ctx_t *ctx, int round)
{
 4021150:	ddc00715 	stw	r23,28(sp)
	for(i = 0; i < 16; i++) {
		int x, y;

		x = i & 0x03;
		y = i >> 2;
		ctx->state[x][y] = ctx->state[x][y] ^
 4021154:	90a4f03a 	xor	r18,r18,r2
 4021158:	20800083 	ldbu	r2,2(r4)
 402115c:	25c00303 	ldbu	r23,12(r4)

	memcpy(ctx->state, nstate, sizeof(ctx->state));
}

void aes_addroundkey(aes_ctx_t *ctx, int round)
{
 4021160:	dd800615 	stw	r22,24(sp)
	for(i = 0; i < 16; i++) {
		int x, y;

		x = i & 0x03;
		y = i >> 2;
		ctx->state[x][y] = ctx->state[x][y] ^
 4021164:	5094f03a 	xor	r10,r10,r2
 4021168:	20800183 	ldbu	r2,6(r4)
 402116c:	25800203 	ldbu	r22,8(r4)

	memcpy(ctx->state, nstate, sizeof(ctx->state));
}

void aes_addroundkey(aes_ctx_t *ctx, int round)
{
 4021170:	dd400515 	stw	r21,20(sp)
	for(i = 0; i < 16; i++) {
		int x, y;

		x = i & 0x03;
		y = i >> 2;
		ctx->state[x][y] = ctx->state[x][y] ^
 4021174:	1886f03a 	xor	r3,r3,r2
 4021178:	20800283 	ldbu	r2,10(r4)
 402117c:	25400103 	ldbu	r21,4(r4)

	memcpy(ctx->state, nstate, sizeof(ctx->state));
}

void aes_addroundkey(aes_ctx_t *ctx, int round)
{
 4021180:	dd000415 	stw	r20,16(sp)
	for(i = 0; i < 16; i++) {
		int x, y;

		x = i & 0x03;
		y = i >> 2;
		ctx->state[x][y] = ctx->state[x][y] ^
 4021184:	789ef03a 	xor	r15,r15,r2
 4021188:	20800383 	ldbu	r2,14(r4)
 402118c:	25000003 	ldbu	r20,0(r4)
 4021190:	380ed23a 	srli	r7,r7,8
 4021194:	98a6f03a 	xor	r19,r19,r2
 4021198:	208000c3 	ldbu	r2,3(r4)
 402119c:	6018d43a 	srli	r12,r12,16
 40211a0:	8020d23a 	srli	r16,r16,8
 40211a4:	308cf03a 	xor	r6,r6,r2
 40211a8:	208001c3 	ldbu	r2,7(r4)
 40211ac:	4510f03a 	xor	r8,r8,r20
 40211b0:	3d4ef03a 	xor	r7,r7,r21
 40211b4:	6598f03a 	xor	r12,r12,r22
 40211b8:	8de2f03a 	xor	r17,r17,r23
 40211bc:	4f12f03a 	xor	r9,r9,fp
 40211c0:	594a703a 	and	r5,r11,r5
 40211c4:	22000005 	stb	r8,0(r4)
 40211c8:	21c00105 	stb	r7,4(r4)
 40211cc:	23000205 	stb	r12,8(r4)
 40211d0:	24400305 	stb	r17,12(r4)
 40211d4:	22400045 	stb	r9,1(r4)
 40211d8:	23400145 	stb	r13,5(r4)
 40211dc:	23800245 	stb	r14,9(r4)
 40211e0:	80a0f03a 	xor	r16,r16,r2
 40211e4:	218000c5 	stb	r6,3(r4)
 40211e8:	208003c3 	ldbu	r2,15(r4)
 40211ec:	218002c3 	ldbu	r6,11(r4)
 40211f0:	280ad43a 	srli	r5,r5,16
 40211f4:	5816d63a 	srli	r11,r11,24
 40211f8:	24800345 	stb	r18,13(r4)
 40211fc:	298af03a 	xor	r5,r5,r6
 4021200:	5896f03a 	xor	r11,r11,r2
 4021204:	22800085 	stb	r10,2(r4)
 4021208:	20c00185 	stb	r3,6(r4)
 402120c:	23c00285 	stb	r15,10(r4)
 4021210:	24c00385 	stb	r19,14(r4)
 4021214:	240001c5 	stb	r16,7(r4)
 4021218:	214002c5 	stb	r5,11(r4)
 402121c:	22c003c5 	stb	r11,15(r4)
			((ctx->keysched[round*4+y] & (0xff << (x*8))) >> (x*8));
	}
}
 4021220:	df000817 	ldw	fp,32(sp)
 4021224:	ddc00717 	ldw	r23,28(sp)
 4021228:	dd800617 	ldw	r22,24(sp)
 402122c:	dd400517 	ldw	r21,20(sp)
 4021230:	dd000417 	ldw	r20,16(sp)
 4021234:	dcc00317 	ldw	r19,12(sp)
 4021238:	dc800217 	ldw	r18,8(sp)
 402123c:	dc400117 	ldw	r17,4(sp)
 4021240:	dc000017 	ldw	r16,0(sp)
 4021244:	dec00904 	addi	sp,sp,36
 4021248:	f800283a 	ret

0402124c <aes_invsubbytes>:
	for(i = 0; i < 16; i++) {
		int x, y;

		x = i & 0x03;
		y = i >> 2;
		ctx->state[x][y] = g_aes_isbox[ctx->state[x][y]];
 402124c:	20800003 	ldbu	r2,0(r4)
 4021250:	014100f4 	movhi	r5,1027
 4021254:	29447904 	addi	r5,r5,4580
 4021258:	20c00103 	ldbu	r3,4(r4)
 402125c:	1145883a 	add	r2,r2,r5
 4021260:	11800003 	ldbu	r6,0(r2)
 4021264:	1947883a 	add	r3,r3,r5
 4021268:	20800203 	ldbu	r2,8(r4)
 402126c:	21800005 	stb	r6,0(r4)
 4021270:	19c00003 	ldbu	r7,0(r3)
 4021274:	1145883a 	add	r2,r2,r5
 4021278:	20c00303 	ldbu	r3,12(r4)
 402127c:	21c00105 	stb	r7,4(r4)
 4021280:	11800003 	ldbu	r6,0(r2)
 4021284:	1947883a 	add	r3,r3,r5
 4021288:	20800043 	ldbu	r2,1(r4)
 402128c:	21800205 	stb	r6,8(r4)
 4021290:	19c00003 	ldbu	r7,0(r3)
 4021294:	1145883a 	add	r2,r2,r5
 4021298:	20c00143 	ldbu	r3,5(r4)
 402129c:	21c00305 	stb	r7,12(r4)
 40212a0:	11800003 	ldbu	r6,0(r2)
 40212a4:	1947883a 	add	r3,r3,r5
 40212a8:	20800243 	ldbu	r2,9(r4)
 40212ac:	21800045 	stb	r6,1(r4)
 40212b0:	19c00003 	ldbu	r7,0(r3)
 40212b4:	1145883a 	add	r2,r2,r5
 40212b8:	20c00343 	ldbu	r3,13(r4)
 40212bc:	21c00145 	stb	r7,5(r4)
 40212c0:	11800003 	ldbu	r6,0(r2)
 40212c4:	1947883a 	add	r3,r3,r5
 40212c8:	20800083 	ldbu	r2,2(r4)
 40212cc:	21800245 	stb	r6,9(r4)
 40212d0:	19c00003 	ldbu	r7,0(r3)
 40212d4:	1145883a 	add	r2,r2,r5
 40212d8:	20c00183 	ldbu	r3,6(r4)
 40212dc:	21c00345 	stb	r7,13(r4)
 40212e0:	11800003 	ldbu	r6,0(r2)
 40212e4:	1947883a 	add	r3,r3,r5
 40212e8:	20800283 	ldbu	r2,10(r4)
 40212ec:	21800085 	stb	r6,2(r4)
 40212f0:	19c00003 	ldbu	r7,0(r3)
 40212f4:	1145883a 	add	r2,r2,r5
 40212f8:	20c00383 	ldbu	r3,14(r4)
 40212fc:	21c00185 	stb	r7,6(r4)
 4021300:	11800003 	ldbu	r6,0(r2)
 4021304:	1947883a 	add	r3,r3,r5
 4021308:	21800285 	stb	r6,10(r4)
 402130c:	18800003 	ldbu	r2,0(r3)
 4021310:	20c000c3 	ldbu	r3,3(r4)
 4021314:	220002c3 	ldbu	r8,11(r4)
 4021318:	20800385 	stb	r2,14(r4)
 402131c:	1947883a 	add	r3,r3,r5
 4021320:	19c00003 	ldbu	r7,0(r3)
 4021324:	208001c3 	ldbu	r2,7(r4)
 4021328:	4151883a 	add	r8,r8,r5
 402132c:	21c000c5 	stb	r7,3(r4)
 4021330:	1145883a 	add	r2,r2,r5
 4021334:	11800003 	ldbu	r6,0(r2)
 4021338:	20c003c3 	ldbu	r3,15(r4)
 402133c:	218001c5 	stb	r6,7(r4)
 4021340:	41c00003 	ldbu	r7,0(r8)
 4021344:	1947883a 	add	r3,r3,r5
 4021348:	21c002c5 	stb	r7,11(r4)
 402134c:	18800003 	ldbu	r2,0(r3)
 4021350:	208003c5 	stb	r2,15(r4)
	}
}
 4021354:	f800283a 	ret

04021358 <aes_free_ctx>:
		output[i] = ctx->state[i & 0x03][i >> 2];
}

void aes_free_ctx(aes_ctx_t *ctx)
{
	free(ctx);
 4021358:	4026c601 	jmpi	4026c60 <free>

0402135c <aes_invmixcolumns>:
		ctx->state[x][y] = g_aes_isbox[ctx->state[x][y]];
	}
}

void aes_invmixcolumns(aes_ctx_t *ctx)
{
 402135c:	deffe404 	addi	sp,sp,-112
 4021360:	dc401315 	stw	r17,76(sp)
				aes_mul(0x0d, ctx->state[3][i]);
		nstate[2][i] = aes_mul(0x0d, ctx->state[0][i]) ^
				aes_mul(0x09, ctx->state[1][i]) ^
				aes_mul(0x0e, ctx->state[2][i]) ^
				aes_mul(0x0b, ctx->state[3][i]);
		nstate[3][i] = aes_mul(0x0b, ctx->state[0][i]) ^
 4021364:	044100f4 	movhi	r17,1027
 4021368:	8c44f904 	addi	r17,r17,5092
 402136c:	88800383 	ldbu	r2,14(r17)
 4021370:	88c00243 	ldbu	r3,9(r17)
 4021374:	89800343 	ldbu	r6,13(r17)
 4021378:	d8800e15 	stw	r2,56(sp)
 402137c:	888002c3 	ldbu	r2,11(r17)
		ctx->state[x][y] = g_aes_isbox[ctx->state[x][y]];
	}
}

void aes_invmixcolumns(aes_ctx_t *ctx)
{
 4021380:	df001a15 	stw	fp,104(sp)
				aes_mul(0x0d, ctx->state[3][i]);
		nstate[2][i] = aes_mul(0x0d, ctx->state[0][i]) ^
				aes_mul(0x09, ctx->state[1][i]) ^
				aes_mul(0x0e, ctx->state[2][i]) ^
				aes_mul(0x0b, ctx->state[3][i]);
		nstate[3][i] = aes_mul(0x0b, ctx->state[0][i]) ^
 4021384:	d8c00a15 	stw	r3,40(sp)
		ctx->state[x][y] = g_aes_isbox[ctx->state[x][y]];
	}
}

void aes_invmixcolumns(aes_ctx_t *ctx)
{
 4021388:	d9001015 	stw	r4,64(sp)
				aes_mul(0x0d, ctx->state[3][i]);
		nstate[2][i] = aes_mul(0x0d, ctx->state[0][i]) ^
				aes_mul(0x09, ctx->state[1][i]) ^
				aes_mul(0x0e, ctx->state[2][i]) ^
				aes_mul(0x0b, ctx->state[3][i]);
		nstate[3][i] = aes_mul(0x0b, ctx->state[0][i]) ^
 402138c:	2039883a 	mov	fp,r4
 4021390:	d8c00304 	addi	r3,sp,12
 4021394:	d9000404 	addi	r4,sp,16
		ctx->state[x][y] = g_aes_isbox[ctx->state[x][y]];
	}
}

void aes_invmixcolumns(aes_ctx_t *ctx)
{
 4021398:	dc801415 	stw	r18,80(sp)
 402139c:	dfc01b15 	stw	ra,108(sp)
 40213a0:	ddc01915 	stw	r23,100(sp)
 40213a4:	dd801815 	stw	r22,96(sp)
 40213a8:	dd401715 	stw	r21,92(sp)
 40213ac:	dd001615 	stw	r20,88(sp)
 40213b0:	dcc01515 	stw	r19,84(sp)
 40213b4:	dc001215 	stw	r16,72(sp)
				aes_mul(0x0d, ctx->state[3][i]);
		nstate[2][i] = aes_mul(0x0d, ctx->state[0][i]) ^
				aes_mul(0x09, ctx->state[1][i]) ^
				aes_mul(0x0e, ctx->state[2][i]) ^
				aes_mul(0x0b, ctx->state[3][i]);
		nstate[3][i] = aes_mul(0x0b, ctx->state[0][i]) ^
 40213b8:	d9800b15 	stw	r6,44(sp)
 40213bc:	d8800c15 	stw	r2,48(sp)
 40213c0:	d8c00415 	stw	r3,16(sp)
 40213c4:	d9001115 	stw	r4,68(sp)
 40213c8:	048003c4 	movi	r18,15
{
	unsigned char nstate[4][4];
	int i;
	
	for(i = 0; i < 4; i++) {
		nstate[0][i] = aes_mul(0x0e, ctx->state[0][i]) ^ 
 40213cc:	e5800003 	ldbu	r22,0(fp)
 40213d0:	b0803fcc 	andi	r2,r22,255
 40213d4:	10018d1e 	bne	r2,zero,4021a0c <aes_invmixcolumns+0x6b0>
 40213d8:	d8000f05 	stb	zero,60(sp)
 40213dc:	e5c00103 	ldbu	r23,4(fp)
 40213e0:	b8803fcc 	andi	r2,r23,255
 40213e4:	10014c1e 	bne	r2,zero,4021918 <aes_invmixcolumns+0x5bc>
 40213e8:	d8000d05 	stb	zero,52(sp)
 40213ec:	e5400203 	ldbu	r21,8(fp)
 40213f0:	a8803fcc 	andi	r2,r21,255
 40213f4:	10015e1e 	bne	r2,zero,4021970 <aes_invmixcolumns+0x614>
 40213f8:	0027883a 	mov	r19,zero
 40213fc:	e5000303 	ldbu	r20,12(fp)
 4021400:	a0803fcc 	andi	r2,r20,255
 4021404:	1001091e 	bne	r2,zero,402182c <aes_invmixcolumns+0x4d0>
 4021408:	0007883a 	mov	r3,zero
 402140c:	d9000d03 	ldbu	r4,52(sp)
 4021410:	d9800f03 	ldbu	r6,60(sp)
 4021414:	24c4f03a 	xor	r2,r4,r19
 4021418:	d9000417 	ldw	r4,16(sp)
 402141c:	30c6f03a 	xor	r3,r6,r3
 4021420:	10c4f03a 	xor	r2,r2,r3
				aes_mul(0x0b, ctx->state[1][i]) ^
				aes_mul(0x0d, ctx->state[2][i]) ^
				aes_mul(0x09, ctx->state[3][i]);
		nstate[1][i] = aes_mul(0x09, ctx->state[0][i]) ^
 4021424:	b0c03fcc 	andi	r3,r22,255
{
	unsigned char nstate[4][4];
	int i;
	
	for(i = 0; i < 4; i++) {
		nstate[0][i] = aes_mul(0x0e, ctx->state[0][i]) ^ 
 4021428:	20bffd05 	stb	r2,-12(r4)
				aes_mul(0x0b, ctx->state[1][i]) ^
				aes_mul(0x0d, ctx->state[2][i]) ^
				aes_mul(0x09, ctx->state[3][i]);
		nstate[1][i] = aes_mul(0x09, ctx->state[0][i]) ^
 402142c:	1801631e 	bne	r3,zero,40219bc <aes_invmixcolumns+0x660>
 4021430:	d8000905 	stb	zero,36(sp)
 4021434:	b8803fcc 	andi	r2,r23,255
 4021438:	10010f1e 	bne	r2,zero,4021878 <aes_invmixcolumns+0x51c>
 402143c:	a8803fcc 	andi	r2,r21,255
 4021440:	d8000805 	stb	zero,32(sp)
 4021444:	1001211e 	bne	r2,zero,40218cc <aes_invmixcolumns+0x570>
 4021448:	0027883a 	mov	r19,zero
 402144c:	a0803fcc 	andi	r2,r20,255
 4021450:	1000e31e 	bne	r2,zero,40217e0 <aes_invmixcolumns+0x484>
 4021454:	0007883a 	mov	r3,zero
 4021458:	d9000803 	ldbu	r4,32(sp)
 402145c:	d9800903 	ldbu	r6,36(sp)
 4021460:	24c4f03a 	xor	r2,r4,r19
 4021464:	d9000417 	ldw	r4,16(sp)
 4021468:	30c6f03a 	xor	r3,r6,r3
 402146c:	10c4f03a 	xor	r2,r2,r3
				aes_mul(0x0e, ctx->state[1][i]) ^
				aes_mul(0x0b, ctx->state[2][i]) ^
				aes_mul(0x0d, ctx->state[3][i]);
		nstate[2][i] = aes_mul(0x0d, ctx->state[0][i]) ^
 4021470:	b0c03fcc 	andi	r3,r22,255
	for(i = 0; i < 4; i++) {
		nstate[0][i] = aes_mul(0x0e, ctx->state[0][i]) ^ 
				aes_mul(0x0b, ctx->state[1][i]) ^
				aes_mul(0x0d, ctx->state[2][i]) ^
				aes_mul(0x09, ctx->state[3][i]);
		nstate[1][i] = aes_mul(0x09, ctx->state[0][i]) ^
 4021474:	20bffe05 	stb	r2,-8(r4)
				aes_mul(0x0e, ctx->state[1][i]) ^
				aes_mul(0x0b, ctx->state[2][i]) ^
				aes_mul(0x0d, ctx->state[3][i]);
		nstate[2][i] = aes_mul(0x0d, ctx->state[0][i]) ^
 4021478:	1800c51e 	bne	r3,zero,4021790 <aes_invmixcolumns+0x434>
 402147c:	d8000705 	stb	zero,28(sp)
 4021480:	b8803fcc 	andi	r2,r23,255
 4021484:	10009a1e 	bne	r2,zero,40216f0 <aes_invmixcolumns+0x394>
 4021488:	a8803fcc 	andi	r2,r21,255
 402148c:	d8000605 	stb	zero,24(sp)
 4021490:	1000ac1e 	bne	r2,zero,4021744 <aes_invmixcolumns+0x3e8>
 4021494:	0027883a 	mov	r19,zero
 4021498:	a0803fcc 	andi	r2,r20,255
 402149c:	1000811e 	bne	r2,zero,40216a4 <aes_invmixcolumns+0x348>
 40214a0:	0007883a 	mov	r3,zero
 40214a4:	d9000603 	ldbu	r4,24(sp)
 40214a8:	d9800703 	ldbu	r6,28(sp)
 40214ac:	24c4f03a 	xor	r2,r4,r19
 40214b0:	d9000417 	ldw	r4,16(sp)
 40214b4:	30c6f03a 	xor	r3,r6,r3
 40214b8:	10c4f03a 	xor	r2,r2,r3
				aes_mul(0x09, ctx->state[1][i]) ^
				aes_mul(0x0e, ctx->state[2][i]) ^
				aes_mul(0x0b, ctx->state[3][i]);
		nstate[3][i] = aes_mul(0x0b, ctx->state[0][i]) ^
 40214bc:	b0c03fcc 	andi	r3,r22,255
				aes_mul(0x09, ctx->state[3][i]);
		nstate[1][i] = aes_mul(0x09, ctx->state[0][i]) ^
				aes_mul(0x0e, ctx->state[1][i]) ^
				aes_mul(0x0b, ctx->state[2][i]) ^
				aes_mul(0x0d, ctx->state[3][i]);
		nstate[2][i] = aes_mul(0x0d, ctx->state[0][i]) ^
 40214c0:	20bfff05 	stb	r2,-4(r4)
				aes_mul(0x09, ctx->state[1][i]) ^
				aes_mul(0x0e, ctx->state[2][i]) ^
				aes_mul(0x0b, ctx->state[3][i]);
		nstate[3][i] = aes_mul(0x0b, ctx->state[0][i]) ^
 40214c4:	1800631e 	bne	r3,zero,4021654 <aes_invmixcolumns+0x2f8>
 40214c8:	d8000505 	stb	zero,20(sp)
 40214cc:	b8803fcc 	andi	r2,r23,255
 40214d0:	10004d1e 	bne	r2,zero,4021608 <aes_invmixcolumns+0x2ac>
 40214d4:	002d883a 	mov	r22,zero
 40214d8:	a8803fcc 	andi	r2,r21,255
 40214dc:	1000371e 	bne	r2,zero,40215bc <aes_invmixcolumns+0x260>
 40214e0:	0027883a 	mov	r19,zero
 40214e4:	a0803fcc 	andi	r2,r20,255
 40214e8:	1000211e 	bne	r2,zero,4021570 <aes_invmixcolumns+0x214>
 40214ec:	0007883a 	mov	r3,zero
 40214f0:	d9000503 	ldbu	r4,20(sp)
 40214f4:	d9800417 	ldw	r6,16(sp)
 40214f8:	9d84f03a 	xor	r2,r19,r22
 40214fc:	1906f03a 	xor	r3,r3,r4
 4021500:	10c4f03a 	xor	r2,r2,r3
 4021504:	30800005 	stb	r2,0(r6)
void aes_invmixcolumns(aes_ctx_t *ctx)
{
	unsigned char nstate[4][4];
	int i;
	
	for(i = 0; i < 4; i++) {
 4021508:	d8801117 	ldw	r2,68(sp)
				aes_mul(0x0d, ctx->state[3][i]);
		nstate[2][i] = aes_mul(0x0d, ctx->state[0][i]) ^
				aes_mul(0x09, ctx->state[1][i]) ^
				aes_mul(0x0e, ctx->state[2][i]) ^
				aes_mul(0x0b, ctx->state[3][i]);
		nstate[3][i] = aes_mul(0x0b, ctx->state[0][i]) ^
 402150c:	31800044 	addi	r6,r6,1
 4021510:	d9800415 	stw	r6,16(sp)
 4021514:	e7000044 	addi	fp,fp,1
void aes_invmixcolumns(aes_ctx_t *ctx)
{
	unsigned char nstate[4][4];
	int i;
	
	for(i = 0; i < 4; i++) {
 4021518:	30bfac1e 	bne	r6,r2,40213cc <aes_invmixcolumns+0x70>
				aes_mul(0x0d, ctx->state[1][i]) ^
				aes_mul(0x09, ctx->state[2][i]) ^
				aes_mul(0x0e, ctx->state[3][i]);
	}

	memcpy(ctx->state, nstate, sizeof(ctx->state));
 402151c:	d9000117 	ldw	r4,4(sp)
 4021520:	d9400217 	ldw	r5,8(sp)
 4021524:	d8c00317 	ldw	r3,12(sp)
 4021528:	d8800017 	ldw	r2,0(sp)
 402152c:	d9801017 	ldw	r6,64(sp)
 4021530:	30800015 	stw	r2,0(r6)
 4021534:	31000115 	stw	r4,4(r6)
 4021538:	30c00315 	stw	r3,12(r6)
 402153c:	31400215 	stw	r5,8(r6)
}
 4021540:	dfc01b17 	ldw	ra,108(sp)
 4021544:	df001a17 	ldw	fp,104(sp)
 4021548:	ddc01917 	ldw	r23,100(sp)
 402154c:	dd801817 	ldw	r22,96(sp)
 4021550:	dd401717 	ldw	r21,92(sp)
 4021554:	dd001617 	ldw	r20,88(sp)
 4021558:	dcc01517 	ldw	r19,84(sp)
 402155c:	dc801417 	ldw	r18,80(sp)
 4021560:	dc401317 	ldw	r17,76(sp)
 4021564:	dc001217 	ldw	r16,72(sp)
 4021568:	dec01c04 	addi	sp,sp,112
 402156c:	f800283a 	ret
				aes_mul(0x0d, ctx->state[3][i]);
		nstate[2][i] = aes_mul(0x0d, ctx->state[0][i]) ^
				aes_mul(0x09, ctx->state[1][i]) ^
				aes_mul(0x0e, ctx->state[2][i]) ^
				aes_mul(0x0b, ctx->state[3][i]);
		nstate[3][i] = aes_mul(0x0b, ctx->state[0][i]) ^
 4021570:	1445883a 	add	r2,r2,r17
 4021574:	10c00003 	ldbu	r3,0(r2)
 4021578:	d9000e17 	ldw	r4,56(sp)
 402157c:	20e1883a 	add	r16,r4,r3
 4021580:	80803fd4 	ori	r2,r16,255
 4021584:	90813536 	bltu	r18,r2,4021a5c <aes_invmixcolumns+0x700>
 4021588:	8004913a 	slli	r2,r16,4
 402158c:	018100f4 	movhi	r6,1027
 4021590:	31b72704 	addi	r6,r6,-9060
 4021594:	10803fd4 	ori	r2,r2,255
 4021598:	1185883a 	add	r2,r2,r6
 402159c:	10800003 	ldbu	r2,0(r2)
 40215a0:	10c03fe4 	muli	r3,r2,255
 40215a4:	008100f4 	movhi	r2,1027
 40215a8:	10843904 	addi	r2,r2,4324
 40215ac:	80c7c83a 	sub	r3,r16,r3
 40215b0:	10c5883a 	add	r2,r2,r3
 40215b4:	10c00003 	ldbu	r3,0(r2)
 40215b8:	003fcd06 	br	40214f0 <aes_invmixcolumns+0x194>
 40215bc:	1445883a 	add	r2,r2,r17
 40215c0:	10c00003 	ldbu	r3,0(r2)
 40215c4:	d8800a17 	ldw	r2,40(sp)
 40215c8:	10e1883a 	add	r16,r2,r3
 40215cc:	80803fd4 	ori	r2,r16,255
 40215d0:	90812a36 	bltu	r18,r2,4021a7c <aes_invmixcolumns+0x720>
 40215d4:	8004913a 	slli	r2,r16,4
 40215d8:	00c100f4 	movhi	r3,1027
 40215dc:	18f72704 	addi	r3,r3,-9060
 40215e0:	10803fd4 	ori	r2,r2,255
 40215e4:	10c5883a 	add	r2,r2,r3
 40215e8:	10800003 	ldbu	r2,0(r2)
 40215ec:	10c03fe4 	muli	r3,r2,255
 40215f0:	008100f4 	movhi	r2,1027
 40215f4:	10843904 	addi	r2,r2,4324
 40215f8:	80c7c83a 	sub	r3,r16,r3
 40215fc:	10c5883a 	add	r2,r2,r3
 4021600:	14c00003 	ldbu	r19,0(r2)
 4021604:	003fb706 	br	40214e4 <aes_invmixcolumns+0x188>
 4021608:	1445883a 	add	r2,r2,r17
 402160c:	10c00003 	ldbu	r3,0(r2)
 4021610:	d9000b17 	ldw	r4,44(sp)
 4021614:	20e1883a 	add	r16,r4,r3
 4021618:	80803fd4 	ori	r2,r16,255
 402161c:	90811b36 	bltu	r18,r2,4021a8c <aes_invmixcolumns+0x730>
 4021620:	8004913a 	slli	r2,r16,4
 4021624:	018100f4 	movhi	r6,1027
 4021628:	31b72704 	addi	r6,r6,-9060
 402162c:	10803fd4 	ori	r2,r2,255
 4021630:	1185883a 	add	r2,r2,r6
 4021634:	10800003 	ldbu	r2,0(r2)
 4021638:	10c03fe4 	muli	r3,r2,255
 402163c:	008100f4 	movhi	r2,1027
 4021640:	10843904 	addi	r2,r2,4324
 4021644:	80c7c83a 	sub	r3,r16,r3
 4021648:	10c5883a 	add	r2,r2,r3
 402164c:	15800003 	ldbu	r22,0(r2)
 4021650:	003fa106 	br	40214d8 <aes_invmixcolumns+0x17c>
 4021654:	1c45883a 	add	r2,r3,r17
 4021658:	10c00003 	ldbu	r3,0(r2)
 402165c:	d9800c17 	ldw	r6,48(sp)
 4021660:	30e1883a 	add	r16,r6,r3
 4021664:	80803fd4 	ori	r2,r16,255
 4021668:	90810c36 	bltu	r18,r2,4021a9c <aes_invmixcolumns+0x740>
 402166c:	8004913a 	slli	r2,r16,4
 4021670:	00c100f4 	movhi	r3,1027
 4021674:	18f72704 	addi	r3,r3,-9060
 4021678:	10803fd4 	ori	r2,r2,255
 402167c:	10c5883a 	add	r2,r2,r3
 4021680:	10800003 	ldbu	r2,0(r2)
 4021684:	10c03fe4 	muli	r3,r2,255
 4021688:	008100f4 	movhi	r2,1027
 402168c:	10843904 	addi	r2,r2,4324
 4021690:	80c7c83a 	sub	r3,r16,r3
 4021694:	10c5883a 	add	r2,r2,r3
 4021698:	10800003 	ldbu	r2,0(r2)
 402169c:	d8800505 	stb	r2,20(sp)
 40216a0:	003f8a06 	br	40214cc <aes_invmixcolumns+0x170>
				aes_mul(0x09, ctx->state[3][i]);
		nstate[1][i] = aes_mul(0x09, ctx->state[0][i]) ^
				aes_mul(0x0e, ctx->state[1][i]) ^
				aes_mul(0x0b, ctx->state[2][i]) ^
				aes_mul(0x0d, ctx->state[3][i]);
		nstate[2][i] = aes_mul(0x0d, ctx->state[0][i]) ^
 40216a4:	1445883a 	add	r2,r2,r17
 40216a8:	10c00003 	ldbu	r3,0(r2)
 40216ac:	d9000c17 	ldw	r4,48(sp)
 40216b0:	20e1883a 	add	r16,r4,r3
 40216b4:	80803fd4 	ori	r2,r16,255
 40216b8:	90810036 	bltu	r18,r2,4021abc <aes_invmixcolumns+0x760>
 40216bc:	8004913a 	slli	r2,r16,4
 40216c0:	018100f4 	movhi	r6,1027
 40216c4:	31b72704 	addi	r6,r6,-9060
 40216c8:	10803fd4 	ori	r2,r2,255
 40216cc:	1185883a 	add	r2,r2,r6
 40216d0:	10800003 	ldbu	r2,0(r2)
 40216d4:	10c03fe4 	muli	r3,r2,255
 40216d8:	008100f4 	movhi	r2,1027
 40216dc:	10843904 	addi	r2,r2,4324
 40216e0:	80c7c83a 	sub	r3,r16,r3
 40216e4:	10c5883a 	add	r2,r2,r3
 40216e8:	10c00003 	ldbu	r3,0(r2)
 40216ec:	003f6d06 	br	40214a4 <aes_invmixcolumns+0x148>
 40216f0:	1445883a 	add	r2,r2,r17
 40216f4:	10c00003 	ldbu	r3,0(r2)
 40216f8:	d9000a17 	ldw	r4,40(sp)
 40216fc:	20e1883a 	add	r16,r4,r3
 4021700:	80803fd4 	ori	r2,r16,255
 4021704:	9080e936 	bltu	r18,r2,4021aac <aes_invmixcolumns+0x750>
 4021708:	8004913a 	slli	r2,r16,4
 402170c:	018100f4 	movhi	r6,1027
 4021710:	31b72704 	addi	r6,r6,-9060
 4021714:	10803fd4 	ori	r2,r2,255
 4021718:	1185883a 	add	r2,r2,r6
 402171c:	10800003 	ldbu	r2,0(r2)
 4021720:	10c03fe4 	muli	r3,r2,255
 4021724:	008100f4 	movhi	r2,1027
 4021728:	10843904 	addi	r2,r2,4324
 402172c:	80c7c83a 	sub	r3,r16,r3
 4021730:	10c5883a 	add	r2,r2,r3
 4021734:	10800003 	ldbu	r2,0(r2)
 4021738:	d8800605 	stb	r2,24(sp)
 402173c:	a8803fcc 	andi	r2,r21,255
 4021740:	103f5426 	beq	r2,zero,4021494 <aes_invmixcolumns+0x138>
 4021744:	1445883a 	add	r2,r2,r17
 4021748:	10c00003 	ldbu	r3,0(r2)
 402174c:	d8800e17 	ldw	r2,56(sp)
 4021750:	10e1883a 	add	r16,r2,r3
 4021754:	80803fd4 	ori	r2,r16,255
 4021758:	9080dc36 	bltu	r18,r2,4021acc <aes_invmixcolumns+0x770>
 402175c:	8004913a 	slli	r2,r16,4
 4021760:	00c100f4 	movhi	r3,1027
 4021764:	18f72704 	addi	r3,r3,-9060
 4021768:	10803fd4 	ori	r2,r2,255
 402176c:	10c5883a 	add	r2,r2,r3
 4021770:	10800003 	ldbu	r2,0(r2)
 4021774:	10c03fe4 	muli	r3,r2,255
 4021778:	008100f4 	movhi	r2,1027
 402177c:	10843904 	addi	r2,r2,4324
 4021780:	80c7c83a 	sub	r3,r16,r3
 4021784:	10c5883a 	add	r2,r2,r3
 4021788:	14c00003 	ldbu	r19,0(r2)
 402178c:	003f4206 	br	4021498 <aes_invmixcolumns+0x13c>
 4021790:	1c45883a 	add	r2,r3,r17
 4021794:	10c00003 	ldbu	r3,0(r2)
 4021798:	d9800b17 	ldw	r6,44(sp)
 402179c:	30e1883a 	add	r16,r6,r3
 40217a0:	80803fd4 	ori	r2,r16,255
 40217a4:	9080cd36 	bltu	r18,r2,4021adc <aes_invmixcolumns+0x780>
 40217a8:	8004913a 	slli	r2,r16,4
 40217ac:	00c100f4 	movhi	r3,1027
 40217b0:	18f72704 	addi	r3,r3,-9060
 40217b4:	10803fd4 	ori	r2,r2,255
 40217b8:	10c5883a 	add	r2,r2,r3
 40217bc:	10800003 	ldbu	r2,0(r2)
 40217c0:	10c03fe4 	muli	r3,r2,255
 40217c4:	008100f4 	movhi	r2,1027
 40217c8:	10843904 	addi	r2,r2,4324
 40217cc:	80c7c83a 	sub	r3,r16,r3
 40217d0:	10c5883a 	add	r2,r2,r3
 40217d4:	10800003 	ldbu	r2,0(r2)
 40217d8:	d8800705 	stb	r2,28(sp)
 40217dc:	003f2806 	br	4021480 <aes_invmixcolumns+0x124>
	for(i = 0; i < 4; i++) {
		nstate[0][i] = aes_mul(0x0e, ctx->state[0][i]) ^ 
				aes_mul(0x0b, ctx->state[1][i]) ^
				aes_mul(0x0d, ctx->state[2][i]) ^
				aes_mul(0x09, ctx->state[3][i]);
		nstate[1][i] = aes_mul(0x09, ctx->state[0][i]) ^
 40217e0:	1445883a 	add	r2,r2,r17
 40217e4:	10c00003 	ldbu	r3,0(r2)
 40217e8:	d9000b17 	ldw	r4,44(sp)
 40217ec:	20e1883a 	add	r16,r4,r3
 40217f0:	80803fd4 	ori	r2,r16,255
 40217f4:	9080c936 	bltu	r18,r2,4021b1c <aes_invmixcolumns+0x7c0>
 40217f8:	8004913a 	slli	r2,r16,4
 40217fc:	018100f4 	movhi	r6,1027
 4021800:	31b72704 	addi	r6,r6,-9060
 4021804:	10803fd4 	ori	r2,r2,255
 4021808:	1185883a 	add	r2,r2,r6
 402180c:	10800003 	ldbu	r2,0(r2)
 4021810:	10c03fe4 	muli	r3,r2,255
 4021814:	008100f4 	movhi	r2,1027
 4021818:	10843904 	addi	r2,r2,4324
 402181c:	80c7c83a 	sub	r3,r16,r3
 4021820:	10c5883a 	add	r2,r2,r3
 4021824:	10c00003 	ldbu	r3,0(r2)
 4021828:	003f0b06 	br	4021458 <aes_invmixcolumns+0xfc>
{
	unsigned char nstate[4][4];
	int i;
	
	for(i = 0; i < 4; i++) {
		nstate[0][i] = aes_mul(0x0e, ctx->state[0][i]) ^ 
 402182c:	1445883a 	add	r2,r2,r17
 4021830:	10c00003 	ldbu	r3,0(r2)
 4021834:	d9000a17 	ldw	r4,40(sp)
 4021838:	20e1883a 	add	r16,r4,r3
 402183c:	80803fd4 	ori	r2,r16,255
 4021840:	9080ae36 	bltu	r18,r2,4021afc <aes_invmixcolumns+0x7a0>
 4021844:	8004913a 	slli	r2,r16,4
 4021848:	018100f4 	movhi	r6,1027
 402184c:	31b72704 	addi	r6,r6,-9060
 4021850:	10803fd4 	ori	r2,r2,255
 4021854:	1185883a 	add	r2,r2,r6
 4021858:	10800003 	ldbu	r2,0(r2)
 402185c:	10c03fe4 	muli	r3,r2,255
 4021860:	008100f4 	movhi	r2,1027
 4021864:	10843904 	addi	r2,r2,4324
 4021868:	80c7c83a 	sub	r3,r16,r3
 402186c:	10c5883a 	add	r2,r2,r3
 4021870:	10c00003 	ldbu	r3,0(r2)
 4021874:	003ee506 	br	402140c <aes_invmixcolumns+0xb0>
				aes_mul(0x0b, ctx->state[1][i]) ^
				aes_mul(0x0d, ctx->state[2][i]) ^
				aes_mul(0x09, ctx->state[3][i]);
		nstate[1][i] = aes_mul(0x09, ctx->state[0][i]) ^
 4021878:	1445883a 	add	r2,r2,r17
 402187c:	10c00003 	ldbu	r3,0(r2)
 4021880:	d9000e17 	ldw	r4,56(sp)
 4021884:	20e1883a 	add	r16,r4,r3
 4021888:	80803fd4 	ori	r2,r16,255
 402188c:	9080ab36 	bltu	r18,r2,4021b3c <aes_invmixcolumns+0x7e0>
 4021890:	8004913a 	slli	r2,r16,4
 4021894:	018100f4 	movhi	r6,1027
 4021898:	31b72704 	addi	r6,r6,-9060
 402189c:	10803fd4 	ori	r2,r2,255
 40218a0:	1185883a 	add	r2,r2,r6
 40218a4:	10800003 	ldbu	r2,0(r2)
 40218a8:	10c03fe4 	muli	r3,r2,255
 40218ac:	008100f4 	movhi	r2,1027
 40218b0:	10843904 	addi	r2,r2,4324
 40218b4:	80c7c83a 	sub	r3,r16,r3
 40218b8:	10c5883a 	add	r2,r2,r3
 40218bc:	10800003 	ldbu	r2,0(r2)
 40218c0:	d8800805 	stb	r2,32(sp)
 40218c4:	a8803fcc 	andi	r2,r21,255
 40218c8:	103edf26 	beq	r2,zero,4021448 <aes_invmixcolumns+0xec>
 40218cc:	1445883a 	add	r2,r2,r17
 40218d0:	10c00003 	ldbu	r3,0(r2)
 40218d4:	d8800c17 	ldw	r2,48(sp)
 40218d8:	10e1883a 	add	r16,r2,r3
 40218dc:	80803fd4 	ori	r2,r16,255
 40218e0:	90809236 	bltu	r18,r2,4021b2c <aes_invmixcolumns+0x7d0>
 40218e4:	8004913a 	slli	r2,r16,4
 40218e8:	00c100f4 	movhi	r3,1027
 40218ec:	18f72704 	addi	r3,r3,-9060
 40218f0:	10803fd4 	ori	r2,r2,255
 40218f4:	10c5883a 	add	r2,r2,r3
 40218f8:	10800003 	ldbu	r2,0(r2)
 40218fc:	10c03fe4 	muli	r3,r2,255
 4021900:	008100f4 	movhi	r2,1027
 4021904:	10843904 	addi	r2,r2,4324
 4021908:	80c7c83a 	sub	r3,r16,r3
 402190c:	10c5883a 	add	r2,r2,r3
 4021910:	14c00003 	ldbu	r19,0(r2)
 4021914:	003ecd06 	br	402144c <aes_invmixcolumns+0xf0>
{
	unsigned char nstate[4][4];
	int i;
	
	for(i = 0; i < 4; i++) {
		nstate[0][i] = aes_mul(0x0e, ctx->state[0][i]) ^ 
 4021918:	1445883a 	add	r2,r2,r17
 402191c:	10c00003 	ldbu	r3,0(r2)
 4021920:	d9000c17 	ldw	r4,48(sp)
 4021924:	20e1883a 	add	r16,r4,r3
 4021928:	80803fd4 	ori	r2,r16,255
 402192c:	90806f36 	bltu	r18,r2,4021aec <aes_invmixcolumns+0x790>
 4021930:	8004913a 	slli	r2,r16,4
 4021934:	018100f4 	movhi	r6,1027
 4021938:	31b72704 	addi	r6,r6,-9060
 402193c:	10803fd4 	ori	r2,r2,255
 4021940:	1185883a 	add	r2,r2,r6
 4021944:	10800003 	ldbu	r2,0(r2)
 4021948:	10c03fe4 	muli	r3,r2,255
 402194c:	008100f4 	movhi	r2,1027
 4021950:	10843904 	addi	r2,r2,4324
 4021954:	80c7c83a 	sub	r3,r16,r3
 4021958:	10c5883a 	add	r2,r2,r3
 402195c:	10800003 	ldbu	r2,0(r2)
 4021960:	d8800d05 	stb	r2,52(sp)
 4021964:	e5400203 	ldbu	r21,8(fp)
 4021968:	a8803fcc 	andi	r2,r21,255
 402196c:	103ea226 	beq	r2,zero,40213f8 <aes_invmixcolumns+0x9c>
 4021970:	1445883a 	add	r2,r2,r17
 4021974:	10c00003 	ldbu	r3,0(r2)
 4021978:	d8800b17 	ldw	r2,44(sp)
 402197c:	10e1883a 	add	r16,r2,r3
 4021980:	80803fd4 	ori	r2,r16,255
 4021984:	90806136 	bltu	r18,r2,4021b0c <aes_invmixcolumns+0x7b0>
 4021988:	8004913a 	slli	r2,r16,4
 402198c:	00c100f4 	movhi	r3,1027
 4021990:	18f72704 	addi	r3,r3,-9060
 4021994:	10803fd4 	ori	r2,r2,255
 4021998:	10c5883a 	add	r2,r2,r3
 402199c:	10800003 	ldbu	r2,0(r2)
 40219a0:	10c03fe4 	muli	r3,r2,255
 40219a4:	008100f4 	movhi	r2,1027
 40219a8:	10843904 	addi	r2,r2,4324
 40219ac:	80c7c83a 	sub	r3,r16,r3
 40219b0:	10c5883a 	add	r2,r2,r3
 40219b4:	14c00003 	ldbu	r19,0(r2)
 40219b8:	003e9006 	br	40213fc <aes_invmixcolumns+0xa0>
				aes_mul(0x0b, ctx->state[1][i]) ^
				aes_mul(0x0d, ctx->state[2][i]) ^
				aes_mul(0x09, ctx->state[3][i]);
		nstate[1][i] = aes_mul(0x09, ctx->state[0][i]) ^
 40219bc:	1c45883a 	add	r2,r3,r17
 40219c0:	10c00003 	ldbu	r3,0(r2)
 40219c4:	d9800a17 	ldw	r6,40(sp)
 40219c8:	30e1883a 	add	r16,r6,r3
 40219cc:	80803fd4 	ori	r2,r16,255
 40219d0:	90805e36 	bltu	r18,r2,4021b4c <aes_invmixcolumns+0x7f0>
 40219d4:	8004913a 	slli	r2,r16,4
 40219d8:	00c100f4 	movhi	r3,1027
 40219dc:	18f72704 	addi	r3,r3,-9060
 40219e0:	10803fd4 	ori	r2,r2,255
 40219e4:	10c5883a 	add	r2,r2,r3
 40219e8:	10800003 	ldbu	r2,0(r2)
 40219ec:	10c03fe4 	muli	r3,r2,255
 40219f0:	008100f4 	movhi	r2,1027
 40219f4:	10843904 	addi	r2,r2,4324
 40219f8:	80c7c83a 	sub	r3,r16,r3
 40219fc:	10c5883a 	add	r2,r2,r3
 4021a00:	10800003 	ldbu	r2,0(r2)
 4021a04:	d8800905 	stb	r2,36(sp)
 4021a08:	003e8a06 	br	4021434 <aes_invmixcolumns+0xd8>
{
	unsigned char nstate[4][4];
	int i;
	
	for(i = 0; i < 4; i++) {
		nstate[0][i] = aes_mul(0x0e, ctx->state[0][i]) ^ 
 4021a0c:	1445883a 	add	r2,r2,r17
 4021a10:	10c00003 	ldbu	r3,0(r2)
 4021a14:	d9800e17 	ldw	r6,56(sp)
 4021a18:	30e1883a 	add	r16,r6,r3
 4021a1c:	80803fd4 	ori	r2,r16,255
 4021a20:	90801236 	bltu	r18,r2,4021a6c <aes_invmixcolumns+0x710>
 4021a24:	8004913a 	slli	r2,r16,4
 4021a28:	00c100f4 	movhi	r3,1027
 4021a2c:	18f72704 	addi	r3,r3,-9060
 4021a30:	10803fd4 	ori	r2,r2,255
 4021a34:	10c5883a 	add	r2,r2,r3
 4021a38:	10800003 	ldbu	r2,0(r2)
 4021a3c:	10c03fe4 	muli	r3,r2,255
 4021a40:	008100f4 	movhi	r2,1027
 4021a44:	10843904 	addi	r2,r2,4324
 4021a48:	80c7c83a 	sub	r3,r16,r3
 4021a4c:	10c5883a 	add	r2,r2,r3
 4021a50:	10800003 	ldbu	r2,0(r2)
 4021a54:	d8800f05 	stb	r2,60(sp)
 4021a58:	003e6006 	br	40213dc <aes_invmixcolumns+0x80>
				aes_mul(0x0d, ctx->state[3][i]);
		nstate[2][i] = aes_mul(0x0d, ctx->state[0][i]) ^
				aes_mul(0x09, ctx->state[1][i]) ^
				aes_mul(0x0e, ctx->state[2][i]) ^
				aes_mul(0x0b, ctx->state[3][i]);
		nstate[3][i] = aes_mul(0x0b, ctx->state[0][i]) ^
 4021a5c:	8009883a 	mov	r4,r16
 4021a60:	01403fc4 	movi	r5,255
 4021a64:	40265d40 	call	40265d4 <__divsi3>
 4021a68:	003ecd06 	br	40215a0 <aes_invmixcolumns+0x244>
{
	unsigned char nstate[4][4];
	int i;
	
	for(i = 0; i < 4; i++) {
		nstate[0][i] = aes_mul(0x0e, ctx->state[0][i]) ^ 
 4021a6c:	8009883a 	mov	r4,r16
 4021a70:	01403fc4 	movi	r5,255
 4021a74:	40265d40 	call	40265d4 <__divsi3>
 4021a78:	003ff006 	br	4021a3c <aes_invmixcolumns+0x6e0>
				aes_mul(0x0d, ctx->state[3][i]);
		nstate[2][i] = aes_mul(0x0d, ctx->state[0][i]) ^
				aes_mul(0x09, ctx->state[1][i]) ^
				aes_mul(0x0e, ctx->state[2][i]) ^
				aes_mul(0x0b, ctx->state[3][i]);
		nstate[3][i] = aes_mul(0x0b, ctx->state[0][i]) ^
 4021a7c:	8009883a 	mov	r4,r16
 4021a80:	01403fc4 	movi	r5,255
 4021a84:	40265d40 	call	40265d4 <__divsi3>
 4021a88:	003ed806 	br	40215ec <aes_invmixcolumns+0x290>
 4021a8c:	8009883a 	mov	r4,r16
 4021a90:	01403fc4 	movi	r5,255
 4021a94:	40265d40 	call	40265d4 <__divsi3>
 4021a98:	003ee706 	br	4021638 <aes_invmixcolumns+0x2dc>
 4021a9c:	8009883a 	mov	r4,r16
 4021aa0:	01403fc4 	movi	r5,255
 4021aa4:	40265d40 	call	40265d4 <__divsi3>
 4021aa8:	003ef606 	br	4021684 <aes_invmixcolumns+0x328>
				aes_mul(0x09, ctx->state[3][i]);
		nstate[1][i] = aes_mul(0x09, ctx->state[0][i]) ^
				aes_mul(0x0e, ctx->state[1][i]) ^
				aes_mul(0x0b, ctx->state[2][i]) ^
				aes_mul(0x0d, ctx->state[3][i]);
		nstate[2][i] = aes_mul(0x0d, ctx->state[0][i]) ^
 4021aac:	8009883a 	mov	r4,r16
 4021ab0:	01403fc4 	movi	r5,255
 4021ab4:	40265d40 	call	40265d4 <__divsi3>
 4021ab8:	003f1906 	br	4021720 <aes_invmixcolumns+0x3c4>
 4021abc:	8009883a 	mov	r4,r16
 4021ac0:	01403fc4 	movi	r5,255
 4021ac4:	40265d40 	call	40265d4 <__divsi3>
 4021ac8:	003f0206 	br	40216d4 <aes_invmixcolumns+0x378>
 4021acc:	8009883a 	mov	r4,r16
 4021ad0:	01403fc4 	movi	r5,255
 4021ad4:	40265d40 	call	40265d4 <__divsi3>
 4021ad8:	003f2606 	br	4021774 <aes_invmixcolumns+0x418>
 4021adc:	8009883a 	mov	r4,r16
 4021ae0:	01403fc4 	movi	r5,255
 4021ae4:	40265d40 	call	40265d4 <__divsi3>
 4021ae8:	003f3506 	br	40217c0 <aes_invmixcolumns+0x464>
{
	unsigned char nstate[4][4];
	int i;
	
	for(i = 0; i < 4; i++) {
		nstate[0][i] = aes_mul(0x0e, ctx->state[0][i]) ^ 
 4021aec:	8009883a 	mov	r4,r16
 4021af0:	01403fc4 	movi	r5,255
 4021af4:	40265d40 	call	40265d4 <__divsi3>
 4021af8:	003f9306 	br	4021948 <aes_invmixcolumns+0x5ec>
 4021afc:	8009883a 	mov	r4,r16
 4021b00:	01403fc4 	movi	r5,255
 4021b04:	40265d40 	call	40265d4 <__divsi3>
 4021b08:	003f5406 	br	402185c <aes_invmixcolumns+0x500>
 4021b0c:	8009883a 	mov	r4,r16
 4021b10:	01403fc4 	movi	r5,255
 4021b14:	40265d40 	call	40265d4 <__divsi3>
 4021b18:	003fa106 	br	40219a0 <aes_invmixcolumns+0x644>
				aes_mul(0x0b, ctx->state[1][i]) ^
				aes_mul(0x0d, ctx->state[2][i]) ^
				aes_mul(0x09, ctx->state[3][i]);
		nstate[1][i] = aes_mul(0x09, ctx->state[0][i]) ^
 4021b1c:	8009883a 	mov	r4,r16
 4021b20:	01403fc4 	movi	r5,255
 4021b24:	40265d40 	call	40265d4 <__divsi3>
 4021b28:	003f3906 	br	4021810 <aes_invmixcolumns+0x4b4>
 4021b2c:	8009883a 	mov	r4,r16
 4021b30:	01403fc4 	movi	r5,255
 4021b34:	40265d40 	call	40265d4 <__divsi3>
 4021b38:	003f7006 	br	40218fc <aes_invmixcolumns+0x5a0>
 4021b3c:	8009883a 	mov	r4,r16
 4021b40:	01403fc4 	movi	r5,255
 4021b44:	40265d40 	call	40265d4 <__divsi3>
 4021b48:	003f5706 	br	40218a8 <aes_invmixcolumns+0x54c>
 4021b4c:	8009883a 	mov	r4,r16
 4021b50:	01403fc4 	movi	r5,255
 4021b54:	40265d40 	call	40265d4 <__divsi3>
 4021b58:	003fa406 	br	40219ec <aes_invmixcolumns+0x690>

04021b5c <aes_invshiftrows>:
	for(i = 0; i < 16; i++) {
		int x, y;

		x = i & 0x03;
		y = i >> 2;
		nstate[x][(y+x) & 0x03] = ctx->state[x][y];
 4021b5c:	20800003 	ldbu	r2,0(r4)
	for(i = 0; i < 16; i++)
		output[i] = ctx->state[i & 0x03][i >> 2];
}

void aes_invshiftrows(aes_ctx_t *ctx)
{
 4021b60:	defffc04 	addi	sp,sp,-16
	for(i = 0; i < 16; i++) {
		int x, y;

		x = i & 0x03;
		y = i >> 2;
		nstate[x][(y+x) & 0x03] = ctx->state[x][y];
 4021b64:	20c00043 	ldbu	r3,1(r4)
 4021b68:	21400083 	ldbu	r5,2(r4)
 4021b6c:	218000c3 	ldbu	r6,3(r4)
 4021b70:	d8800005 	stb	r2,0(sp)
 4021b74:	20800103 	ldbu	r2,4(r4)
 4021b78:	d8c00045 	stb	r3,1(sp)
 4021b7c:	d9400085 	stb	r5,2(sp)
 4021b80:	d98000c5 	stb	r6,3(sp)
 4021b84:	20c00203 	ldbu	r3,8(r4)
 4021b88:	21400303 	ldbu	r5,12(r4)
 4021b8c:	21800143 	ldbu	r6,5(r4)
 4021b90:	21c00243 	ldbu	r7,9(r4)
 4021b94:	22000343 	ldbu	r8,13(r4)
 4021b98:	22400183 	ldbu	r9,6(r4)
 4021b9c:	22800283 	ldbu	r10,10(r4)
 4021ba0:	22c00383 	ldbu	r11,14(r4)
 4021ba4:	230001c3 	ldbu	r12,7(r4)
 4021ba8:	234002c3 	ldbu	r13,11(r4)
 4021bac:	238003c3 	ldbu	r14,15(r4)
 4021bb0:	d8800145 	stb	r2,5(sp)
	}

	memcpy(ctx->state, nstate, sizeof(ctx->state));
 4021bb4:	d8800017 	ldw	r2,0(sp)
	for(i = 0; i < 16; i++) {
		int x, y;

		x = i & 0x03;
		y = i >> 2;
		nstate[x][(y+x) & 0x03] = ctx->state[x][y];
 4021bb8:	d8c00285 	stb	r3,10(sp)
 4021bbc:	d94003c5 	stb	r5,15(sp)
 4021bc0:	d9800185 	stb	r6,6(sp)
 4021bc4:	d9c002c5 	stb	r7,11(sp)
 4021bc8:	da000305 	stb	r8,12(sp)
 4021bcc:	da4001c5 	stb	r9,7(sp)
 4021bd0:	da800205 	stb	r10,8(sp)
 4021bd4:	dac00345 	stb	r11,13(sp)
 4021bd8:	db000105 	stb	r12,4(sp)
 4021bdc:	db400245 	stb	r13,9(sp)
 4021be0:	db800385 	stb	r14,14(sp)
	}

	memcpy(ctx->state, nstate, sizeof(ctx->state));
 4021be4:	20800015 	stw	r2,0(r4)
 4021be8:	d8c00217 	ldw	r3,8(sp)
 4021bec:	d9400317 	ldw	r5,12(sp)
 4021bf0:	d8800117 	ldw	r2,4(sp)
 4021bf4:	20c00215 	stw	r3,8(r4)
 4021bf8:	21400315 	stw	r5,12(r4)
 4021bfc:	20800115 	stw	r2,4(r4)
}
 4021c00:	dec00404 	addi	sp,sp,16
 4021c04:	f800283a 	ret

04021c08 <aes_mixcolumns>:

	memcpy(ctx->state, nstate, sizeof(ctx->state));
}

void aes_mixcolumns(aes_ctx_t *ctx)
{
 4021c08:	deffe304 	addi	sp,sp,-116
 4021c0c:	df001b15 	stw	fp,108(sp)
 4021c10:	ddc01a15 	stw	r23,104(sp)
 4021c14:	dd401815 	stw	r21,96(sp)
 4021c18:	dc401415 	stw	r17,80(sp)
 4021c1c:	dfc01c15 	stw	ra,112(sp)
 4021c20:	dd801915 	stw	r22,100(sp)
 4021c24:	dd001715 	stw	r20,92(sp)
 4021c28:	dcc01615 	stw	r19,88(sp)
 4021c2c:	dc801515 	stw	r18,84(sp)
 4021c30:	dc001315 	stw	r16,76(sp)
	unsigned char nstate[4][4];
	int i;
	
	for(i = 0; i < 4; i++) {
		nstate[0][i] = aes_mul(0x02, ctx->state[0][i]) ^ 
 4021c34:	25000003 	ldbu	r20,0(r4)
				ctx->state[3][i];
		nstate[2][i] = ctx->state[0][i] ^
				ctx->state[1][i] ^
				aes_mul(0x02, ctx->state[2][i]) ^
				aes_mul(0x03, ctx->state[3][i]);
		nstate[3][i] = aes_mul(0x03, ctx->state[0][i]) ^
 4021c38:	054100f4 	movhi	r21,1027
 4021c3c:	ad44f904 	addi	r21,r21,5092

	memcpy(ctx->state, nstate, sizeof(ctx->state));
}

void aes_mixcolumns(aes_ctx_t *ctx)
{
 4021c40:	2023883a 	mov	r17,r4
	unsigned char nstate[4][4];
	int i;
	
	for(i = 0; i < 4; i++) {
		nstate[0][i] = aes_mul(0x02, ctx->state[0][i]) ^ 
 4021c44:	a0803fcc 	andi	r2,r20,255
				ctx->state[3][i];
		nstate[2][i] = ctx->state[0][i] ^
				ctx->state[1][i] ^
				aes_mul(0x02, ctx->state[2][i]) ^
				aes_mul(0x03, ctx->state[3][i]);
		nstate[3][i] = aes_mul(0x03, ctx->state[0][i]) ^
 4021c48:	af000083 	ldbu	fp,2(r21)
 4021c4c:	adc000c3 	ldbu	r23,3(r21)
{
	unsigned char nstate[4][4];
	int i;
	
	for(i = 0; i < 4; i++) {
		nstate[0][i] = aes_mul(0x02, ctx->state[0][i]) ^ 
 4021c50:	1003131e 	bne	r2,zero,40228a0 <aes_mixcolumns+0xc98>
 4021c54:	d8000605 	stb	zero,24(sp)
 4021c58:	8d800103 	ldbu	r22,4(r17)
 4021c5c:	b0803fcc 	andi	r2,r22,255
 4021c60:	10001226 	beq	r2,zero,4021cac <aes_mixcolumns+0xa4>
 4021c64:	1545883a 	add	r2,r2,r21
 4021c68:	10c00003 	ldbu	r3,0(r2)
 4021c6c:	008003c4 	movi	r2,15
 4021c70:	1de1883a 	add	r16,r3,r23
 4021c74:	81003fd4 	ori	r4,r16,255
 4021c78:	11039936 	bltu	r2,r4,4022ae0 <aes_mixcolumns+0xed8>
 4021c7c:	8004913a 	slli	r2,r16,4
 4021c80:	00c100f4 	movhi	r3,1027
 4021c84:	18f72704 	addi	r3,r3,-9060
 4021c88:	10803fd4 	ori	r2,r2,255
 4021c8c:	10c5883a 	add	r2,r2,r3
 4021c90:	10800003 	ldbu	r2,0(r2)
 4021c94:	10c03fe4 	muli	r3,r2,255
 4021c98:	008100f4 	movhi	r2,1027
 4021c9c:	10843904 	addi	r2,r2,4324
 4021ca0:	80c7c83a 	sub	r3,r16,r3
 4021ca4:	10c5883a 	add	r2,r2,r3
 4021ca8:	10800003 	ldbu	r2,0(r2)
 4021cac:	d8c00603 	ldbu	r3,24(sp)
 4021cb0:	8cc00203 	ldbu	r19,8(r17)
 4021cb4:	8c800303 	ldbu	r18,12(r17)
 4021cb8:	1884f03a 	xor	r2,r3,r2
 4021cbc:	14c4f03a 	xor	r2,r2,r19
 4021cc0:	1484f03a 	xor	r2,r2,r18
				aes_mul(0x03, ctx->state[1][i]) ^
				ctx->state[2][i] ^
				ctx->state[3][i];
		nstate[1][i] = ctx->state[0][i] ^
 4021cc4:	b0c03fcc 	andi	r3,r22,255
{
	unsigned char nstate[4][4];
	int i;
	
	for(i = 0; i < 4; i++) {
		nstate[0][i] = aes_mul(0x02, ctx->state[0][i]) ^ 
 4021cc8:	d8800005 	stb	r2,0(sp)
				aes_mul(0x03, ctx->state[1][i]) ^
				ctx->state[2][i] ^
				ctx->state[3][i];
		nstate[1][i] = ctx->state[0][i] ^
 4021ccc:	1802e01e 	bne	r3,zero,4022850 <aes_mixcolumns+0xc48>
 4021cd0:	d8000905 	stb	zero,36(sp)
 4021cd4:	98803fcc 	andi	r2,r19,255
 4021cd8:	10001226 	beq	r2,zero,4021d24 <aes_mixcolumns+0x11c>
 4021cdc:	1545883a 	add	r2,r2,r21
 4021ce0:	10c00003 	ldbu	r3,0(r2)
 4021ce4:	008003c4 	movi	r2,15
 4021ce8:	b8e1883a 	add	r16,r23,r3
 4021cec:	81003fd4 	ori	r4,r16,255
 4021cf0:	11037736 	bltu	r2,r4,4022ad0 <aes_mixcolumns+0xec8>
 4021cf4:	8004913a 	slli	r2,r16,4
 4021cf8:	00c100f4 	movhi	r3,1027
 4021cfc:	18f72704 	addi	r3,r3,-9060
 4021d00:	10803fd4 	ori	r2,r2,255
 4021d04:	10c5883a 	add	r2,r2,r3
 4021d08:	10800003 	ldbu	r2,0(r2)
 4021d0c:	10c03fe4 	muli	r3,r2,255
 4021d10:	008100f4 	movhi	r2,1027
 4021d14:	10843904 	addi	r2,r2,4324
 4021d18:	80c7c83a 	sub	r3,r16,r3
 4021d1c:	10c5883a 	add	r2,r2,r3
 4021d20:	10800003 	ldbu	r2,0(r2)
 4021d24:	d9000903 	ldbu	r4,36(sp)
				aes_mul(0x02, ctx->state[1][i]) ^
				aes_mul(0x03, ctx->state[2][i]) ^
				ctx->state[3][i];
		nstate[2][i] = ctx->state[0][i] ^
 4021d28:	98c03fcc 	andi	r3,r19,255
	for(i = 0; i < 4; i++) {
		nstate[0][i] = aes_mul(0x02, ctx->state[0][i]) ^ 
				aes_mul(0x03, ctx->state[1][i]) ^
				ctx->state[2][i] ^
				ctx->state[3][i];
		nstate[1][i] = ctx->state[0][i] ^
 4021d2c:	1104f03a 	xor	r2,r2,r4
 4021d30:	1504f03a 	xor	r2,r2,r20
 4021d34:	1484f03a 	xor	r2,r2,r18
 4021d38:	d8800105 	stb	r2,4(sp)
				aes_mul(0x02, ctx->state[1][i]) ^
				aes_mul(0x03, ctx->state[2][i]) ^
				ctx->state[3][i];
		nstate[2][i] = ctx->state[0][i] ^
 4021d3c:	1802b01e 	bne	r3,zero,4022800 <aes_mixcolumns+0xbf8>
 4021d40:	d8000c05 	stb	zero,48(sp)
 4021d44:	90803fcc 	andi	r2,r18,255
 4021d48:	10001226 	beq	r2,zero,4021d94 <aes_mixcolumns+0x18c>
 4021d4c:	1545883a 	add	r2,r2,r21
 4021d50:	10c00003 	ldbu	r3,0(r2)
 4021d54:	008003c4 	movi	r2,15
 4021d58:	b8e1883a 	add	r16,r23,r3
 4021d5c:	81003fd4 	ori	r4,r16,255
 4021d60:	11035736 	bltu	r2,r4,4022ac0 <aes_mixcolumns+0xeb8>
 4021d64:	8004913a 	slli	r2,r16,4
 4021d68:	00c100f4 	movhi	r3,1027
 4021d6c:	18f72704 	addi	r3,r3,-9060
 4021d70:	10803fd4 	ori	r2,r2,255
 4021d74:	10c5883a 	add	r2,r2,r3
 4021d78:	10800003 	ldbu	r2,0(r2)
 4021d7c:	10c03fe4 	muli	r3,r2,255
 4021d80:	008100f4 	movhi	r2,1027
 4021d84:	10843904 	addi	r2,r2,4324
 4021d88:	80c7c83a 	sub	r3,r16,r3
 4021d8c:	10c5883a 	add	r2,r2,r3
 4021d90:	10800003 	ldbu	r2,0(r2)
 4021d94:	d9000c03 	ldbu	r4,48(sp)
 4021d98:	2086f03a 	xor	r3,r4,r2
 4021d9c:	a584f03a 	xor	r2,r20,r22
 4021da0:	10c4f03a 	xor	r2,r2,r3
				ctx->state[1][i] ^
				aes_mul(0x02, ctx->state[2][i]) ^
				aes_mul(0x03, ctx->state[3][i]);
		nstate[3][i] = aes_mul(0x03, ctx->state[0][i]) ^
 4021da4:	a0c03fcc 	andi	r3,r20,255
				ctx->state[3][i];
		nstate[1][i] = ctx->state[0][i] ^
				aes_mul(0x02, ctx->state[1][i]) ^
				aes_mul(0x03, ctx->state[2][i]) ^
				ctx->state[3][i];
		nstate[2][i] = ctx->state[0][i] ^
 4021da8:	d8800205 	stb	r2,8(sp)
				ctx->state[1][i] ^
				aes_mul(0x02, ctx->state[2][i]) ^
				aes_mul(0x03, ctx->state[3][i]);
		nstate[3][i] = aes_mul(0x03, ctx->state[0][i]) ^
 4021dac:	1802801e 	bne	r3,zero,40227b0 <aes_mixcolumns+0xba8>
 4021db0:	d8000f05 	stb	zero,60(sp)
 4021db4:	90803fcc 	andi	r2,r18,255
 4021db8:	10026a1e 	bne	r2,zero,4022764 <aes_mixcolumns+0xb5c>
 4021dbc:	0007883a 	mov	r3,zero
 4021dc0:	d9000f03 	ldbu	r4,60(sp)
{
	unsigned char nstate[4][4];
	int i;
	
	for(i = 0; i < 4; i++) {
		nstate[0][i] = aes_mul(0x02, ctx->state[0][i]) ^ 
 4021dc4:	8d000043 	ldbu	r20,1(r17)
				ctx->state[3][i];
		nstate[2][i] = ctx->state[0][i] ^
				ctx->state[1][i] ^
				aes_mul(0x02, ctx->state[2][i]) ^
				aes_mul(0x03, ctx->state[3][i]);
		nstate[3][i] = aes_mul(0x03, ctx->state[0][i]) ^
 4021dc8:	2584f03a 	xor	r2,r4,r22
 4021dcc:	10c4f03a 	xor	r2,r2,r3
 4021dd0:	14c4f03a 	xor	r2,r2,r19
{
	unsigned char nstate[4][4];
	int i;
	
	for(i = 0; i < 4; i++) {
		nstate[0][i] = aes_mul(0x02, ctx->state[0][i]) ^ 
 4021dd4:	a0c03fcc 	andi	r3,r20,255
				ctx->state[3][i];
		nstate[2][i] = ctx->state[0][i] ^
				ctx->state[1][i] ^
				aes_mul(0x02, ctx->state[2][i]) ^
				aes_mul(0x03, ctx->state[3][i]);
		nstate[3][i] = aes_mul(0x03, ctx->state[0][i]) ^
 4021dd8:	d8800305 	stb	r2,12(sp)
{
	unsigned char nstate[4][4];
	int i;
	
	for(i = 0; i < 4; i++) {
		nstate[0][i] = aes_mul(0x02, ctx->state[0][i]) ^ 
 4021ddc:	18024d1e 	bne	r3,zero,4022714 <aes_mixcolumns+0xb0c>
 4021de0:	d8000505 	stb	zero,20(sp)
 4021de4:	8d800143 	ldbu	r22,5(r17)
 4021de8:	b0803fcc 	andi	r2,r22,255
 4021dec:	10001226 	beq	r2,zero,4021e38 <aes_mixcolumns+0x230>
 4021df0:	1545883a 	add	r2,r2,r21
 4021df4:	10c00003 	ldbu	r3,0(r2)
 4021df8:	008003c4 	movi	r2,15
 4021dfc:	b8e1883a 	add	r16,r23,r3
 4021e00:	81003fd4 	ori	r4,r16,255
 4021e04:	11032a36 	bltu	r2,r4,4022ab0 <aes_mixcolumns+0xea8>
 4021e08:	8004913a 	slli	r2,r16,4
 4021e0c:	00c100f4 	movhi	r3,1027
 4021e10:	18f72704 	addi	r3,r3,-9060
 4021e14:	10803fd4 	ori	r2,r2,255
 4021e18:	10c5883a 	add	r2,r2,r3
 4021e1c:	10800003 	ldbu	r2,0(r2)
 4021e20:	10c03fe4 	muli	r3,r2,255
 4021e24:	008100f4 	movhi	r2,1027
 4021e28:	10843904 	addi	r2,r2,4324
 4021e2c:	80c7c83a 	sub	r3,r16,r3
 4021e30:	10c5883a 	add	r2,r2,r3
 4021e34:	10800003 	ldbu	r2,0(r2)
 4021e38:	d8c00503 	ldbu	r3,20(sp)
 4021e3c:	8cc00243 	ldbu	r19,9(r17)
 4021e40:	8c800343 	ldbu	r18,13(r17)
 4021e44:	1884f03a 	xor	r2,r3,r2
 4021e48:	14c4f03a 	xor	r2,r2,r19
 4021e4c:	1484f03a 	xor	r2,r2,r18
				aes_mul(0x03, ctx->state[1][i]) ^
				ctx->state[2][i] ^
				ctx->state[3][i];
		nstate[1][i] = ctx->state[0][i] ^
 4021e50:	b0c03fcc 	andi	r3,r22,255
{
	unsigned char nstate[4][4];
	int i;
	
	for(i = 0; i < 4; i++) {
		nstate[0][i] = aes_mul(0x02, ctx->state[0][i]) ^ 
 4021e54:	d8800045 	stb	r2,1(sp)
				aes_mul(0x03, ctx->state[1][i]) ^
				ctx->state[2][i] ^
				ctx->state[3][i];
		nstate[1][i] = ctx->state[0][i] ^
 4021e58:	18021a1e 	bne	r3,zero,40226c4 <aes_mixcolumns+0xabc>
 4021e5c:	d8000805 	stb	zero,32(sp)
 4021e60:	98803fcc 	andi	r2,r19,255
 4021e64:	10001226 	beq	r2,zero,4021eb0 <aes_mixcolumns+0x2a8>
 4021e68:	1545883a 	add	r2,r2,r21
 4021e6c:	10c00003 	ldbu	r3,0(r2)
 4021e70:	008003c4 	movi	r2,15
 4021e74:	b8e1883a 	add	r16,r23,r3
 4021e78:	81003fd4 	ori	r4,r16,255
 4021e7c:	11030836 	bltu	r2,r4,4022aa0 <aes_mixcolumns+0xe98>
 4021e80:	8004913a 	slli	r2,r16,4
 4021e84:	00c100f4 	movhi	r3,1027
 4021e88:	18f72704 	addi	r3,r3,-9060
 4021e8c:	10803fd4 	ori	r2,r2,255
 4021e90:	10c5883a 	add	r2,r2,r3
 4021e94:	10800003 	ldbu	r2,0(r2)
 4021e98:	10c03fe4 	muli	r3,r2,255
 4021e9c:	008100f4 	movhi	r2,1027
 4021ea0:	10843904 	addi	r2,r2,4324
 4021ea4:	80c7c83a 	sub	r3,r16,r3
 4021ea8:	10c5883a 	add	r2,r2,r3
 4021eac:	10800003 	ldbu	r2,0(r2)
 4021eb0:	d9000803 	ldbu	r4,32(sp)
				aes_mul(0x02, ctx->state[1][i]) ^
				aes_mul(0x03, ctx->state[2][i]) ^
				ctx->state[3][i];
		nstate[2][i] = ctx->state[0][i] ^
 4021eb4:	98c03fcc 	andi	r3,r19,255
	for(i = 0; i < 4; i++) {
		nstate[0][i] = aes_mul(0x02, ctx->state[0][i]) ^ 
				aes_mul(0x03, ctx->state[1][i]) ^
				ctx->state[2][i] ^
				ctx->state[3][i];
		nstate[1][i] = ctx->state[0][i] ^
 4021eb8:	1104f03a 	xor	r2,r2,r4
 4021ebc:	1504f03a 	xor	r2,r2,r20
 4021ec0:	1484f03a 	xor	r2,r2,r18
 4021ec4:	d8800145 	stb	r2,5(sp)
				aes_mul(0x02, ctx->state[1][i]) ^
				aes_mul(0x03, ctx->state[2][i]) ^
				ctx->state[3][i];
		nstate[2][i] = ctx->state[0][i] ^
 4021ec8:	1801ea1e 	bne	r3,zero,4022674 <aes_mixcolumns+0xa6c>
 4021ecc:	d8000b05 	stb	zero,44(sp)
 4021ed0:	90803fcc 	andi	r2,r18,255
 4021ed4:	10001226 	beq	r2,zero,4021f20 <aes_mixcolumns+0x318>
 4021ed8:	1545883a 	add	r2,r2,r21
 4021edc:	10c00003 	ldbu	r3,0(r2)
 4021ee0:	008003c4 	movi	r2,15
 4021ee4:	b8e1883a 	add	r16,r23,r3
 4021ee8:	81003fd4 	ori	r4,r16,255
 4021eec:	1102e836 	bltu	r2,r4,4022a90 <aes_mixcolumns+0xe88>
 4021ef0:	8004913a 	slli	r2,r16,4
 4021ef4:	00c100f4 	movhi	r3,1027
 4021ef8:	18f72704 	addi	r3,r3,-9060
 4021efc:	10803fd4 	ori	r2,r2,255
 4021f00:	10c5883a 	add	r2,r2,r3
 4021f04:	10800003 	ldbu	r2,0(r2)
 4021f08:	10c03fe4 	muli	r3,r2,255
 4021f0c:	008100f4 	movhi	r2,1027
 4021f10:	10843904 	addi	r2,r2,4324
 4021f14:	80c7c83a 	sub	r3,r16,r3
 4021f18:	10c5883a 	add	r2,r2,r3
 4021f1c:	10800003 	ldbu	r2,0(r2)
 4021f20:	d9000b03 	ldbu	r4,44(sp)
 4021f24:	2086f03a 	xor	r3,r4,r2
 4021f28:	a584f03a 	xor	r2,r20,r22
 4021f2c:	10c4f03a 	xor	r2,r2,r3
				ctx->state[1][i] ^
				aes_mul(0x02, ctx->state[2][i]) ^
				aes_mul(0x03, ctx->state[3][i]);
		nstate[3][i] = aes_mul(0x03, ctx->state[0][i]) ^
 4021f30:	a0c03fcc 	andi	r3,r20,255
				ctx->state[3][i];
		nstate[1][i] = ctx->state[0][i] ^
				aes_mul(0x02, ctx->state[1][i]) ^
				aes_mul(0x03, ctx->state[2][i]) ^
				ctx->state[3][i];
		nstate[2][i] = ctx->state[0][i] ^
 4021f34:	d8800245 	stb	r2,9(sp)
				ctx->state[1][i] ^
				aes_mul(0x02, ctx->state[2][i]) ^
				aes_mul(0x03, ctx->state[3][i]);
		nstate[3][i] = aes_mul(0x03, ctx->state[0][i]) ^
 4021f38:	1801ba1e 	bne	r3,zero,4022624 <aes_mixcolumns+0xa1c>
 4021f3c:	d8000e05 	stb	zero,56(sp)
 4021f40:	90803fcc 	andi	r2,r18,255
 4021f44:	1001a41e 	bne	r2,zero,40225d8 <aes_mixcolumns+0x9d0>
 4021f48:	0007883a 	mov	r3,zero
 4021f4c:	d9000e03 	ldbu	r4,56(sp)
{
	unsigned char nstate[4][4];
	int i;
	
	for(i = 0; i < 4; i++) {
		nstate[0][i] = aes_mul(0x02, ctx->state[0][i]) ^ 
 4021f50:	8d000083 	ldbu	r20,2(r17)
				ctx->state[3][i];
		nstate[2][i] = ctx->state[0][i] ^
				ctx->state[1][i] ^
				aes_mul(0x02, ctx->state[2][i]) ^
				aes_mul(0x03, ctx->state[3][i]);
		nstate[3][i] = aes_mul(0x03, ctx->state[0][i]) ^
 4021f54:	2584f03a 	xor	r2,r4,r22
 4021f58:	10c4f03a 	xor	r2,r2,r3
 4021f5c:	14c4f03a 	xor	r2,r2,r19
{
	unsigned char nstate[4][4];
	int i;
	
	for(i = 0; i < 4; i++) {
		nstate[0][i] = aes_mul(0x02, ctx->state[0][i]) ^ 
 4021f60:	a0c03fcc 	andi	r3,r20,255
				ctx->state[3][i];
		nstate[2][i] = ctx->state[0][i] ^
				ctx->state[1][i] ^
				aes_mul(0x02, ctx->state[2][i]) ^
				aes_mul(0x03, ctx->state[3][i]);
		nstate[3][i] = aes_mul(0x03, ctx->state[0][i]) ^
 4021f64:	d8800345 	stb	r2,13(sp)
{
	unsigned char nstate[4][4];
	int i;
	
	for(i = 0; i < 4; i++) {
		nstate[0][i] = aes_mul(0x02, ctx->state[0][i]) ^ 
 4021f68:	1801871e 	bne	r3,zero,4022588 <aes_mixcolumns+0x980>
 4021f6c:	d8000405 	stb	zero,16(sp)
 4021f70:	8d800183 	ldbu	r22,6(r17)
 4021f74:	b0803fcc 	andi	r2,r22,255
 4021f78:	10001226 	beq	r2,zero,4021fc4 <aes_mixcolumns+0x3bc>
 4021f7c:	1545883a 	add	r2,r2,r21
 4021f80:	10c00003 	ldbu	r3,0(r2)
 4021f84:	008003c4 	movi	r2,15
 4021f88:	b8e1883a 	add	r16,r23,r3
 4021f8c:	81003fd4 	ori	r4,r16,255
 4021f90:	1102bb36 	bltu	r2,r4,4022a80 <aes_mixcolumns+0xe78>
 4021f94:	8004913a 	slli	r2,r16,4
 4021f98:	00c100f4 	movhi	r3,1027
 4021f9c:	18f72704 	addi	r3,r3,-9060
 4021fa0:	10803fd4 	ori	r2,r2,255
 4021fa4:	10c5883a 	add	r2,r2,r3
 4021fa8:	10800003 	ldbu	r2,0(r2)
 4021fac:	10c03fe4 	muli	r3,r2,255
 4021fb0:	008100f4 	movhi	r2,1027
 4021fb4:	10843904 	addi	r2,r2,4324
 4021fb8:	80c7c83a 	sub	r3,r16,r3
 4021fbc:	10c5883a 	add	r2,r2,r3
 4021fc0:	10800003 	ldbu	r2,0(r2)
 4021fc4:	d8c00403 	ldbu	r3,16(sp)
 4021fc8:	8cc00283 	ldbu	r19,10(r17)
 4021fcc:	8c800383 	ldbu	r18,14(r17)
 4021fd0:	1884f03a 	xor	r2,r3,r2
 4021fd4:	14c4f03a 	xor	r2,r2,r19
 4021fd8:	1484f03a 	xor	r2,r2,r18
				aes_mul(0x03, ctx->state[1][i]) ^
				ctx->state[2][i] ^
				ctx->state[3][i];
		nstate[1][i] = ctx->state[0][i] ^
 4021fdc:	b0c03fcc 	andi	r3,r22,255
{
	unsigned char nstate[4][4];
	int i;
	
	for(i = 0; i < 4; i++) {
		nstate[0][i] = aes_mul(0x02, ctx->state[0][i]) ^ 
 4021fe0:	d8800085 	stb	r2,2(sp)
				aes_mul(0x03, ctx->state[1][i]) ^
				ctx->state[2][i] ^
				ctx->state[3][i];
		nstate[1][i] = ctx->state[0][i] ^
 4021fe4:	1801541e 	bne	r3,zero,4022538 <aes_mixcolumns+0x930>
 4021fe8:	d8000705 	stb	zero,28(sp)
 4021fec:	98803fcc 	andi	r2,r19,255
 4021ff0:	10001226 	beq	r2,zero,402203c <aes_mixcolumns+0x434>
 4021ff4:	1545883a 	add	r2,r2,r21
 4021ff8:	10c00003 	ldbu	r3,0(r2)
 4021ffc:	008003c4 	movi	r2,15
 4022000:	b8e1883a 	add	r16,r23,r3
 4022004:	81003fd4 	ori	r4,r16,255
 4022008:	11029936 	bltu	r2,r4,4022a70 <aes_mixcolumns+0xe68>
 402200c:	8004913a 	slli	r2,r16,4
 4022010:	00c100f4 	movhi	r3,1027
 4022014:	18f72704 	addi	r3,r3,-9060
 4022018:	10803fd4 	ori	r2,r2,255
 402201c:	10c5883a 	add	r2,r2,r3
 4022020:	10800003 	ldbu	r2,0(r2)
 4022024:	10c03fe4 	muli	r3,r2,255
 4022028:	008100f4 	movhi	r2,1027
 402202c:	10843904 	addi	r2,r2,4324
 4022030:	80c7c83a 	sub	r3,r16,r3
 4022034:	10c5883a 	add	r2,r2,r3
 4022038:	10800003 	ldbu	r2,0(r2)
 402203c:	d9000703 	ldbu	r4,28(sp)
				aes_mul(0x02, ctx->state[1][i]) ^
				aes_mul(0x03, ctx->state[2][i]) ^
				ctx->state[3][i];
		nstate[2][i] = ctx->state[0][i] ^
 4022040:	98c03fcc 	andi	r3,r19,255
	for(i = 0; i < 4; i++) {
		nstate[0][i] = aes_mul(0x02, ctx->state[0][i]) ^ 
				aes_mul(0x03, ctx->state[1][i]) ^
				ctx->state[2][i] ^
				ctx->state[3][i];
		nstate[1][i] = ctx->state[0][i] ^
 4022044:	1104f03a 	xor	r2,r2,r4
 4022048:	1504f03a 	xor	r2,r2,r20
 402204c:	1484f03a 	xor	r2,r2,r18
 4022050:	d8800185 	stb	r2,6(sp)
				aes_mul(0x02, ctx->state[1][i]) ^
				aes_mul(0x03, ctx->state[2][i]) ^
				ctx->state[3][i];
		nstate[2][i] = ctx->state[0][i] ^
 4022054:	1801241e 	bne	r3,zero,40224e8 <aes_mixcolumns+0x8e0>
 4022058:	d8000a05 	stb	zero,40(sp)
 402205c:	90803fcc 	andi	r2,r18,255
 4022060:	10001226 	beq	r2,zero,40220ac <aes_mixcolumns+0x4a4>
 4022064:	1545883a 	add	r2,r2,r21
 4022068:	10c00003 	ldbu	r3,0(r2)
 402206c:	008003c4 	movi	r2,15
 4022070:	b8e1883a 	add	r16,r23,r3
 4022074:	81003fd4 	ori	r4,r16,255
 4022078:	11027936 	bltu	r2,r4,4022a60 <aes_mixcolumns+0xe58>
 402207c:	8004913a 	slli	r2,r16,4
 4022080:	00c100f4 	movhi	r3,1027
 4022084:	18f72704 	addi	r3,r3,-9060
 4022088:	10803fd4 	ori	r2,r2,255
 402208c:	10c5883a 	add	r2,r2,r3
 4022090:	10800003 	ldbu	r2,0(r2)
 4022094:	10c03fe4 	muli	r3,r2,255
 4022098:	008100f4 	movhi	r2,1027
 402209c:	10843904 	addi	r2,r2,4324
 40220a0:	80c7c83a 	sub	r3,r16,r3
 40220a4:	10c5883a 	add	r2,r2,r3
 40220a8:	10800003 	ldbu	r2,0(r2)
 40220ac:	d9000a03 	ldbu	r4,40(sp)
 40220b0:	2086f03a 	xor	r3,r4,r2
 40220b4:	a584f03a 	xor	r2,r20,r22
 40220b8:	10c4f03a 	xor	r2,r2,r3
				ctx->state[1][i] ^
				aes_mul(0x02, ctx->state[2][i]) ^
				aes_mul(0x03, ctx->state[3][i]);
		nstate[3][i] = aes_mul(0x03, ctx->state[0][i]) ^
 40220bc:	a0c03fcc 	andi	r3,r20,255
				ctx->state[3][i];
		nstate[1][i] = ctx->state[0][i] ^
				aes_mul(0x02, ctx->state[1][i]) ^
				aes_mul(0x03, ctx->state[2][i]) ^
				ctx->state[3][i];
		nstate[2][i] = ctx->state[0][i] ^
 40220c0:	d8800285 	stb	r2,10(sp)
				ctx->state[1][i] ^
				aes_mul(0x02, ctx->state[2][i]) ^
				aes_mul(0x03, ctx->state[3][i]);
		nstate[3][i] = aes_mul(0x03, ctx->state[0][i]) ^
 40220c4:	1800f41e 	bne	r3,zero,4022498 <aes_mixcolumns+0x890>
 40220c8:	d8000d05 	stb	zero,52(sp)
 40220cc:	90803fcc 	andi	r2,r18,255
 40220d0:	1000de1e 	bne	r2,zero,402244c <aes_mixcolumns+0x844>
 40220d4:	0007883a 	mov	r3,zero
 40220d8:	d9000d03 	ldbu	r4,52(sp)
{
	unsigned char nstate[4][4];
	int i;
	
	for(i = 0; i < 4; i++) {
		nstate[0][i] = aes_mul(0x02, ctx->state[0][i]) ^ 
 40220dc:	8d0000c3 	ldbu	r20,3(r17)
				ctx->state[3][i];
		nstate[2][i] = ctx->state[0][i] ^
				ctx->state[1][i] ^
				aes_mul(0x02, ctx->state[2][i]) ^
				aes_mul(0x03, ctx->state[3][i]);
		nstate[3][i] = aes_mul(0x03, ctx->state[0][i]) ^
 40220e0:	2584f03a 	xor	r2,r4,r22
 40220e4:	10c4f03a 	xor	r2,r2,r3
 40220e8:	14c4f03a 	xor	r2,r2,r19
{
	unsigned char nstate[4][4];
	int i;
	
	for(i = 0; i < 4; i++) {
		nstate[0][i] = aes_mul(0x02, ctx->state[0][i]) ^ 
 40220ec:	a0c03fcc 	andi	r3,r20,255
				ctx->state[3][i];
		nstate[2][i] = ctx->state[0][i] ^
				ctx->state[1][i] ^
				aes_mul(0x02, ctx->state[2][i]) ^
				aes_mul(0x03, ctx->state[3][i]);
		nstate[3][i] = aes_mul(0x03, ctx->state[0][i]) ^
 40220f0:	d8800385 	stb	r2,14(sp)
{
	unsigned char nstate[4][4];
	int i;
	
	for(i = 0; i < 4; i++) {
		nstate[0][i] = aes_mul(0x02, ctx->state[0][i]) ^ 
 40220f4:	1800c11e 	bne	r3,zero,40223fc <aes_mixcolumns+0x7f4>
 40220f8:	d8001205 	stb	zero,72(sp)
 40220fc:	8d8001c3 	ldbu	r22,7(r17)
 4022100:	b0803fcc 	andi	r2,r22,255
 4022104:	10001226 	beq	r2,zero,4022150 <aes_mixcolumns+0x548>
 4022108:	1545883a 	add	r2,r2,r21
 402210c:	10c00003 	ldbu	r3,0(r2)
 4022110:	008003c4 	movi	r2,15
 4022114:	b8e1883a 	add	r16,r23,r3
 4022118:	81003fd4 	ori	r4,r16,255
 402211c:	11024c36 	bltu	r2,r4,4022a50 <aes_mixcolumns+0xe48>
 4022120:	8004913a 	slli	r2,r16,4
 4022124:	00c100f4 	movhi	r3,1027
 4022128:	18f72704 	addi	r3,r3,-9060
 402212c:	10803fd4 	ori	r2,r2,255
 4022130:	10c5883a 	add	r2,r2,r3
 4022134:	10800003 	ldbu	r2,0(r2)
 4022138:	10c03fe4 	muli	r3,r2,255
 402213c:	008100f4 	movhi	r2,1027
 4022140:	10843904 	addi	r2,r2,4324
 4022144:	80c7c83a 	sub	r3,r16,r3
 4022148:	10c5883a 	add	r2,r2,r3
 402214c:	10800003 	ldbu	r2,0(r2)
 4022150:	d8c01203 	ldbu	r3,72(sp)
 4022154:	8cc002c3 	ldbu	r19,11(r17)
 4022158:	8c8003c3 	ldbu	r18,15(r17)
 402215c:	1884f03a 	xor	r2,r3,r2
 4022160:	14c4f03a 	xor	r2,r2,r19
 4022164:	1484f03a 	xor	r2,r2,r18
				aes_mul(0x03, ctx->state[1][i]) ^
				ctx->state[2][i] ^
				ctx->state[3][i];
		nstate[1][i] = ctx->state[0][i] ^
 4022168:	b0c03fcc 	andi	r3,r22,255
{
	unsigned char nstate[4][4];
	int i;
	
	for(i = 0; i < 4; i++) {
		nstate[0][i] = aes_mul(0x02, ctx->state[0][i]) ^ 
 402216c:	d88000c5 	stb	r2,3(sp)
				aes_mul(0x03, ctx->state[1][i]) ^
				ctx->state[2][i] ^
				ctx->state[3][i];
		nstate[1][i] = ctx->state[0][i] ^
 4022170:	1800681e 	bne	r3,zero,4022314 <aes_mixcolumns+0x70c>
 4022174:	d8001105 	stb	zero,68(sp)
 4022178:	98803fcc 	andi	r2,r19,255
 402217c:	10001226 	beq	r2,zero,40221c8 <aes_mixcolumns+0x5c0>
 4022180:	1545883a 	add	r2,r2,r21
 4022184:	10c00003 	ldbu	r3,0(r2)
 4022188:	008003c4 	movi	r2,15
 402218c:	b8e1883a 	add	r16,r23,r3
 4022190:	81003fd4 	ori	r4,r16,255
 4022194:	11022a36 	bltu	r2,r4,4022a40 <aes_mixcolumns+0xe38>
 4022198:	8004913a 	slli	r2,r16,4
 402219c:	00c100f4 	movhi	r3,1027
 40221a0:	18f72704 	addi	r3,r3,-9060
 40221a4:	10803fd4 	ori	r2,r2,255
 40221a8:	10c5883a 	add	r2,r2,r3
 40221ac:	10800003 	ldbu	r2,0(r2)
 40221b0:	10c03fe4 	muli	r3,r2,255
 40221b4:	008100f4 	movhi	r2,1027
 40221b8:	10843904 	addi	r2,r2,4324
 40221bc:	80c7c83a 	sub	r3,r16,r3
 40221c0:	10c5883a 	add	r2,r2,r3
 40221c4:	10800003 	ldbu	r2,0(r2)
 40221c8:	d9001103 	ldbu	r4,68(sp)
				aes_mul(0x02, ctx->state[1][i]) ^
				aes_mul(0x03, ctx->state[2][i]) ^
				ctx->state[3][i];
		nstate[2][i] = ctx->state[0][i] ^
 40221cc:	98c03fcc 	andi	r3,r19,255
	for(i = 0; i < 4; i++) {
		nstate[0][i] = aes_mul(0x02, ctx->state[0][i]) ^ 
				aes_mul(0x03, ctx->state[1][i]) ^
				ctx->state[2][i] ^
				ctx->state[3][i];
		nstate[1][i] = ctx->state[0][i] ^
 40221d0:	1104f03a 	xor	r2,r2,r4
 40221d4:	1504f03a 	xor	r2,r2,r20
 40221d8:	1484f03a 	xor	r2,r2,r18
 40221dc:	d88001c5 	stb	r2,7(sp)
				aes_mul(0x02, ctx->state[1][i]) ^
				aes_mul(0x03, ctx->state[2][i]) ^
				ctx->state[3][i];
		nstate[2][i] = ctx->state[0][i] ^
 40221e0:	1800381e 	bne	r3,zero,40222c4 <aes_mixcolumns+0x6bc>
 40221e4:	d8001005 	stb	zero,64(sp)
 40221e8:	90803fcc 	andi	r2,r18,255
 40221ec:	10001226 	beq	r2,zero,4022238 <aes_mixcolumns+0x630>
 40221f0:	1545883a 	add	r2,r2,r21
 40221f4:	10c00003 	ldbu	r3,0(r2)
 40221f8:	008003c4 	movi	r2,15
 40221fc:	b8e1883a 	add	r16,r23,r3
 4022200:	81003fd4 	ori	r4,r16,255
 4022204:	11020a36 	bltu	r2,r4,4022a30 <aes_mixcolumns+0xe28>
 4022208:	8004913a 	slli	r2,r16,4
 402220c:	00c100f4 	movhi	r3,1027
 4022210:	18f72704 	addi	r3,r3,-9060
 4022214:	10803fd4 	ori	r2,r2,255
 4022218:	10c5883a 	add	r2,r2,r3
 402221c:	10800003 	ldbu	r2,0(r2)
 4022220:	10c03fe4 	muli	r3,r2,255
 4022224:	008100f4 	movhi	r2,1027
 4022228:	10843904 	addi	r2,r2,4324
 402222c:	80c7c83a 	sub	r3,r16,r3
 4022230:	10c5883a 	add	r2,r2,r3
 4022234:	10800003 	ldbu	r2,0(r2)
 4022238:	d9001003 	ldbu	r4,64(sp)
 402223c:	2086f03a 	xor	r3,r4,r2
 4022240:	a584f03a 	xor	r2,r20,r22
 4022244:	10c4f03a 	xor	r2,r2,r3
				ctx->state[1][i] ^
				aes_mul(0x02, ctx->state[2][i]) ^
				aes_mul(0x03, ctx->state[3][i]);
		nstate[3][i] = aes_mul(0x03, ctx->state[0][i]) ^
 4022248:	a0c03fcc 	andi	r3,r20,255
				ctx->state[3][i];
		nstate[1][i] = ctx->state[0][i] ^
				aes_mul(0x02, ctx->state[1][i]) ^
				aes_mul(0x03, ctx->state[2][i]) ^
				ctx->state[3][i];
		nstate[2][i] = ctx->state[0][i] ^
 402224c:	d88002c5 	stb	r2,11(sp)
				ctx->state[1][i] ^
				aes_mul(0x02, ctx->state[2][i]) ^
				aes_mul(0x03, ctx->state[3][i]);
		nstate[3][i] = aes_mul(0x03, ctx->state[0][i]) ^
 4022250:	1800571e 	bne	r3,zero,40223b0 <aes_mixcolumns+0x7a8>
 4022254:	0029883a 	mov	r20,zero
 4022258:	90803fcc 	andi	r2,r18,255
 402225c:	1000411e 	bne	r2,zero,4022364 <aes_mixcolumns+0x75c>
 4022260:	0007883a 	mov	r3,zero
 4022264:	a584f03a 	xor	r2,r20,r22
 4022268:	10c4f03a 	xor	r2,r2,r3
 402226c:	14c4f03a 	xor	r2,r2,r19
 4022270:	d88003c5 	stb	r2,15(sp)
				ctx->state[1][i] ^
				ctx->state[2][i] ^
				aes_mul(0x02, ctx->state[3][i]);
	}

	memcpy(ctx->state, nstate, sizeof(ctx->state));
 4022274:	d9000117 	ldw	r4,4(sp)
 4022278:	d9400217 	ldw	r5,8(sp)
 402227c:	d8c00317 	ldw	r3,12(sp)
 4022280:	d8800017 	ldw	r2,0(sp)
 4022284:	89000115 	stw	r4,4(r17)
 4022288:	88c00315 	stw	r3,12(r17)
 402228c:	88800015 	stw	r2,0(r17)
 4022290:	89400215 	stw	r5,8(r17)
}
 4022294:	dfc01c17 	ldw	ra,112(sp)
 4022298:	df001b17 	ldw	fp,108(sp)
 402229c:	ddc01a17 	ldw	r23,104(sp)
 40222a0:	dd801917 	ldw	r22,100(sp)
 40222a4:	dd401817 	ldw	r21,96(sp)
 40222a8:	dd001717 	ldw	r20,92(sp)
 40222ac:	dcc01617 	ldw	r19,88(sp)
 40222b0:	dc801517 	ldw	r18,84(sp)
 40222b4:	dc401417 	ldw	r17,80(sp)
 40222b8:	dc001317 	ldw	r16,76(sp)
 40222bc:	dec01d04 	addi	sp,sp,116
 40222c0:	f800283a 	ret
				ctx->state[3][i];
		nstate[1][i] = ctx->state[0][i] ^
				aes_mul(0x02, ctx->state[1][i]) ^
				aes_mul(0x03, ctx->state[2][i]) ^
				ctx->state[3][i];
		nstate[2][i] = ctx->state[0][i] ^
 40222c4:	1d45883a 	add	r2,r3,r21
 40222c8:	10c00003 	ldbu	r3,0(r2)
 40222cc:	008003c4 	movi	r2,15
 40222d0:	e0e1883a 	add	r16,fp,r3
 40222d4:	81003fd4 	ori	r4,r16,255
 40222d8:	1101d136 	bltu	r2,r4,4022a20 <aes_mixcolumns+0xe18>
 40222dc:	8004913a 	slli	r2,r16,4
 40222e0:	00c100f4 	movhi	r3,1027
 40222e4:	18f72704 	addi	r3,r3,-9060
 40222e8:	10803fd4 	ori	r2,r2,255
 40222ec:	10c5883a 	add	r2,r2,r3
 40222f0:	10800003 	ldbu	r2,0(r2)
 40222f4:	10c03fe4 	muli	r3,r2,255
 40222f8:	008100f4 	movhi	r2,1027
 40222fc:	10843904 	addi	r2,r2,4324
 4022300:	80c7c83a 	sub	r3,r16,r3
 4022304:	10c5883a 	add	r2,r2,r3
 4022308:	10800003 	ldbu	r2,0(r2)
 402230c:	d8801005 	stb	r2,64(sp)
 4022310:	003fb506 	br	40221e8 <aes_mixcolumns+0x5e0>
	for(i = 0; i < 4; i++) {
		nstate[0][i] = aes_mul(0x02, ctx->state[0][i]) ^ 
				aes_mul(0x03, ctx->state[1][i]) ^
				ctx->state[2][i] ^
				ctx->state[3][i];
		nstate[1][i] = ctx->state[0][i] ^
 4022314:	1d45883a 	add	r2,r3,r21
 4022318:	10c00003 	ldbu	r3,0(r2)
 402231c:	008003c4 	movi	r2,15
 4022320:	e0e1883a 	add	r16,fp,r3
 4022324:	81003fd4 	ori	r4,r16,255
 4022328:	1101b936 	bltu	r2,r4,4022a10 <aes_mixcolumns+0xe08>
 402232c:	8004913a 	slli	r2,r16,4
 4022330:	00c100f4 	movhi	r3,1027
 4022334:	18f72704 	addi	r3,r3,-9060
 4022338:	10803fd4 	ori	r2,r2,255
 402233c:	10c5883a 	add	r2,r2,r3
 4022340:	10800003 	ldbu	r2,0(r2)
 4022344:	10c03fe4 	muli	r3,r2,255
 4022348:	008100f4 	movhi	r2,1027
 402234c:	10843904 	addi	r2,r2,4324
 4022350:	80c7c83a 	sub	r3,r16,r3
 4022354:	10c5883a 	add	r2,r2,r3
 4022358:	10800003 	ldbu	r2,0(r2)
 402235c:	d8801105 	stb	r2,68(sp)
 4022360:	003f8506 	br	4022178 <aes_mixcolumns+0x570>
				ctx->state[3][i];
		nstate[2][i] = ctx->state[0][i] ^
				ctx->state[1][i] ^
				aes_mul(0x02, ctx->state[2][i]) ^
				aes_mul(0x03, ctx->state[3][i]);
		nstate[3][i] = aes_mul(0x03, ctx->state[0][i]) ^
 4022364:	1545883a 	add	r2,r2,r21
 4022368:	10c00003 	ldbu	r3,0(r2)
 402236c:	008003c4 	movi	r2,15
 4022370:	e0e1883a 	add	r16,fp,r3
 4022374:	81003fd4 	ori	r4,r16,255
 4022378:	1101a136 	bltu	r2,r4,4022a00 <aes_mixcolumns+0xdf8>
 402237c:	8004913a 	slli	r2,r16,4
 4022380:	00c100f4 	movhi	r3,1027
 4022384:	18f72704 	addi	r3,r3,-9060
 4022388:	10803fd4 	ori	r2,r2,255
 402238c:	10c5883a 	add	r2,r2,r3
 4022390:	10800003 	ldbu	r2,0(r2)
 4022394:	10c03fe4 	muli	r3,r2,255
 4022398:	008100f4 	movhi	r2,1027
 402239c:	10843904 	addi	r2,r2,4324
 40223a0:	80c7c83a 	sub	r3,r16,r3
 40223a4:	10c5883a 	add	r2,r2,r3
 40223a8:	10c00003 	ldbu	r3,0(r2)
 40223ac:	003fad06 	br	4022264 <aes_mixcolumns+0x65c>
 40223b0:	1d45883a 	add	r2,r3,r21
 40223b4:	10c00003 	ldbu	r3,0(r2)
 40223b8:	008003c4 	movi	r2,15
 40223bc:	b8e1883a 	add	r16,r23,r3
 40223c0:	81003fd4 	ori	r4,r16,255
 40223c4:	11018a36 	bltu	r2,r4,40229f0 <aes_mixcolumns+0xde8>
 40223c8:	8004913a 	slli	r2,r16,4
 40223cc:	00c100f4 	movhi	r3,1027
 40223d0:	18f72704 	addi	r3,r3,-9060
 40223d4:	10803fd4 	ori	r2,r2,255
 40223d8:	10c5883a 	add	r2,r2,r3
 40223dc:	10800003 	ldbu	r2,0(r2)
 40223e0:	10c03fe4 	muli	r3,r2,255
 40223e4:	008100f4 	movhi	r2,1027
 40223e8:	10843904 	addi	r2,r2,4324
 40223ec:	80c7c83a 	sub	r3,r16,r3
 40223f0:	10c5883a 	add	r2,r2,r3
 40223f4:	15000003 	ldbu	r20,0(r2)
 40223f8:	003f9706 	br	4022258 <aes_mixcolumns+0x650>
{
	unsigned char nstate[4][4];
	int i;
	
	for(i = 0; i < 4; i++) {
		nstate[0][i] = aes_mul(0x02, ctx->state[0][i]) ^ 
 40223fc:	1d45883a 	add	r2,r3,r21
 4022400:	10c00003 	ldbu	r3,0(r2)
 4022404:	008003c4 	movi	r2,15
 4022408:	e0e1883a 	add	r16,fp,r3
 402240c:	81003fd4 	ori	r4,r16,255
 4022410:	11017336 	bltu	r2,r4,40229e0 <aes_mixcolumns+0xdd8>
 4022414:	8004913a 	slli	r2,r16,4
 4022418:	00c100f4 	movhi	r3,1027
 402241c:	18f72704 	addi	r3,r3,-9060
 4022420:	10803fd4 	ori	r2,r2,255
 4022424:	10c5883a 	add	r2,r2,r3
 4022428:	10800003 	ldbu	r2,0(r2)
 402242c:	10c03fe4 	muli	r3,r2,255
 4022430:	008100f4 	movhi	r2,1027
 4022434:	10843904 	addi	r2,r2,4324
 4022438:	80c7c83a 	sub	r3,r16,r3
 402243c:	10c5883a 	add	r2,r2,r3
 4022440:	10800003 	ldbu	r2,0(r2)
 4022444:	d8801205 	stb	r2,72(sp)
 4022448:	003f2c06 	br	40220fc <aes_mixcolumns+0x4f4>
				ctx->state[3][i];
		nstate[2][i] = ctx->state[0][i] ^
				ctx->state[1][i] ^
				aes_mul(0x02, ctx->state[2][i]) ^
				aes_mul(0x03, ctx->state[3][i]);
		nstate[3][i] = aes_mul(0x03, ctx->state[0][i]) ^
 402244c:	1545883a 	add	r2,r2,r21
 4022450:	10c00003 	ldbu	r3,0(r2)
 4022454:	008003c4 	movi	r2,15
 4022458:	e0e1883a 	add	r16,fp,r3
 402245c:	81003fd4 	ori	r4,r16,255
 4022460:	11015b36 	bltu	r2,r4,40229d0 <aes_mixcolumns+0xdc8>
 4022464:	8004913a 	slli	r2,r16,4
 4022468:	00c100f4 	movhi	r3,1027
 402246c:	18f72704 	addi	r3,r3,-9060
 4022470:	10803fd4 	ori	r2,r2,255
 4022474:	10c5883a 	add	r2,r2,r3
 4022478:	10800003 	ldbu	r2,0(r2)
 402247c:	10c03fe4 	muli	r3,r2,255
 4022480:	008100f4 	movhi	r2,1027
 4022484:	10843904 	addi	r2,r2,4324
 4022488:	80c7c83a 	sub	r3,r16,r3
 402248c:	10c5883a 	add	r2,r2,r3
 4022490:	10c00003 	ldbu	r3,0(r2)
 4022494:	003f1006 	br	40220d8 <aes_mixcolumns+0x4d0>
 4022498:	1d45883a 	add	r2,r3,r21
 402249c:	10c00003 	ldbu	r3,0(r2)
 40224a0:	008003c4 	movi	r2,15
 40224a4:	b8e1883a 	add	r16,r23,r3
 40224a8:	81003fd4 	ori	r4,r16,255
 40224ac:	11014436 	bltu	r2,r4,40229c0 <aes_mixcolumns+0xdb8>
 40224b0:	8004913a 	slli	r2,r16,4
 40224b4:	00c100f4 	movhi	r3,1027
 40224b8:	18f72704 	addi	r3,r3,-9060
 40224bc:	10803fd4 	ori	r2,r2,255
 40224c0:	10c5883a 	add	r2,r2,r3
 40224c4:	10800003 	ldbu	r2,0(r2)
 40224c8:	10c03fe4 	muli	r3,r2,255
 40224cc:	008100f4 	movhi	r2,1027
 40224d0:	10843904 	addi	r2,r2,4324
 40224d4:	80c7c83a 	sub	r3,r16,r3
 40224d8:	10c5883a 	add	r2,r2,r3
 40224dc:	10800003 	ldbu	r2,0(r2)
 40224e0:	d8800d05 	stb	r2,52(sp)
 40224e4:	003ef906 	br	40220cc <aes_mixcolumns+0x4c4>
				ctx->state[3][i];
		nstate[1][i] = ctx->state[0][i] ^
				aes_mul(0x02, ctx->state[1][i]) ^
				aes_mul(0x03, ctx->state[2][i]) ^
				ctx->state[3][i];
		nstate[2][i] = ctx->state[0][i] ^
 40224e8:	1d45883a 	add	r2,r3,r21
 40224ec:	10c00003 	ldbu	r3,0(r2)
 40224f0:	008003c4 	movi	r2,15
 40224f4:	e0e1883a 	add	r16,fp,r3
 40224f8:	81003fd4 	ori	r4,r16,255
 40224fc:	11012c36 	bltu	r2,r4,40229b0 <aes_mixcolumns+0xda8>
 4022500:	8004913a 	slli	r2,r16,4
 4022504:	00c100f4 	movhi	r3,1027
 4022508:	18f72704 	addi	r3,r3,-9060
 402250c:	10803fd4 	ori	r2,r2,255
 4022510:	10c5883a 	add	r2,r2,r3
 4022514:	10800003 	ldbu	r2,0(r2)
 4022518:	10c03fe4 	muli	r3,r2,255
 402251c:	008100f4 	movhi	r2,1027
 4022520:	10843904 	addi	r2,r2,4324
 4022524:	80c7c83a 	sub	r3,r16,r3
 4022528:	10c5883a 	add	r2,r2,r3
 402252c:	10800003 	ldbu	r2,0(r2)
 4022530:	d8800a05 	stb	r2,40(sp)
 4022534:	003ec906 	br	402205c <aes_mixcolumns+0x454>
	for(i = 0; i < 4; i++) {
		nstate[0][i] = aes_mul(0x02, ctx->state[0][i]) ^ 
				aes_mul(0x03, ctx->state[1][i]) ^
				ctx->state[2][i] ^
				ctx->state[3][i];
		nstate[1][i] = ctx->state[0][i] ^
 4022538:	1d45883a 	add	r2,r3,r21
 402253c:	10c00003 	ldbu	r3,0(r2)
 4022540:	008003c4 	movi	r2,15
 4022544:	e0e1883a 	add	r16,fp,r3
 4022548:	81003fd4 	ori	r4,r16,255
 402254c:	11011436 	bltu	r2,r4,40229a0 <aes_mixcolumns+0xd98>
 4022550:	8004913a 	slli	r2,r16,4
 4022554:	00c100f4 	movhi	r3,1027
 4022558:	18f72704 	addi	r3,r3,-9060
 402255c:	10803fd4 	ori	r2,r2,255
 4022560:	10c5883a 	add	r2,r2,r3
 4022564:	10800003 	ldbu	r2,0(r2)
 4022568:	10c03fe4 	muli	r3,r2,255
 402256c:	008100f4 	movhi	r2,1027
 4022570:	10843904 	addi	r2,r2,4324
 4022574:	80c7c83a 	sub	r3,r16,r3
 4022578:	10c5883a 	add	r2,r2,r3
 402257c:	10800003 	ldbu	r2,0(r2)
 4022580:	d8800705 	stb	r2,28(sp)
 4022584:	003e9906 	br	4021fec <aes_mixcolumns+0x3e4>
{
	unsigned char nstate[4][4];
	int i;
	
	for(i = 0; i < 4; i++) {
		nstate[0][i] = aes_mul(0x02, ctx->state[0][i]) ^ 
 4022588:	1d45883a 	add	r2,r3,r21
 402258c:	10c00003 	ldbu	r3,0(r2)
 4022590:	008003c4 	movi	r2,15
 4022594:	e0e1883a 	add	r16,fp,r3
 4022598:	81003fd4 	ori	r4,r16,255
 402259c:	1100fc36 	bltu	r2,r4,4022990 <aes_mixcolumns+0xd88>
 40225a0:	8004913a 	slli	r2,r16,4
 40225a4:	00c100f4 	movhi	r3,1027
 40225a8:	18f72704 	addi	r3,r3,-9060
 40225ac:	10803fd4 	ori	r2,r2,255
 40225b0:	10c5883a 	add	r2,r2,r3
 40225b4:	10800003 	ldbu	r2,0(r2)
 40225b8:	10c03fe4 	muli	r3,r2,255
 40225bc:	008100f4 	movhi	r2,1027
 40225c0:	10843904 	addi	r2,r2,4324
 40225c4:	80c7c83a 	sub	r3,r16,r3
 40225c8:	10c5883a 	add	r2,r2,r3
 40225cc:	10800003 	ldbu	r2,0(r2)
 40225d0:	d8800405 	stb	r2,16(sp)
 40225d4:	003e6606 	br	4021f70 <aes_mixcolumns+0x368>
				ctx->state[3][i];
		nstate[2][i] = ctx->state[0][i] ^
				ctx->state[1][i] ^
				aes_mul(0x02, ctx->state[2][i]) ^
				aes_mul(0x03, ctx->state[3][i]);
		nstate[3][i] = aes_mul(0x03, ctx->state[0][i]) ^
 40225d8:	1545883a 	add	r2,r2,r21
 40225dc:	10c00003 	ldbu	r3,0(r2)
 40225e0:	008003c4 	movi	r2,15
 40225e4:	e0e1883a 	add	r16,fp,r3
 40225e8:	81003fd4 	ori	r4,r16,255
 40225ec:	1100e436 	bltu	r2,r4,4022980 <aes_mixcolumns+0xd78>
 40225f0:	8004913a 	slli	r2,r16,4
 40225f4:	00c100f4 	movhi	r3,1027
 40225f8:	18f72704 	addi	r3,r3,-9060
 40225fc:	10803fd4 	ori	r2,r2,255
 4022600:	10c5883a 	add	r2,r2,r3
 4022604:	10800003 	ldbu	r2,0(r2)
 4022608:	10c03fe4 	muli	r3,r2,255
 402260c:	008100f4 	movhi	r2,1027
 4022610:	10843904 	addi	r2,r2,4324
 4022614:	80c7c83a 	sub	r3,r16,r3
 4022618:	10c5883a 	add	r2,r2,r3
 402261c:	10c00003 	ldbu	r3,0(r2)
 4022620:	003e4a06 	br	4021f4c <aes_mixcolumns+0x344>
 4022624:	1d45883a 	add	r2,r3,r21
 4022628:	10c00003 	ldbu	r3,0(r2)
 402262c:	008003c4 	movi	r2,15
 4022630:	b8e1883a 	add	r16,r23,r3
 4022634:	81003fd4 	ori	r4,r16,255
 4022638:	1100cd36 	bltu	r2,r4,4022970 <aes_mixcolumns+0xd68>
 402263c:	8004913a 	slli	r2,r16,4
 4022640:	00c100f4 	movhi	r3,1027
 4022644:	18f72704 	addi	r3,r3,-9060
 4022648:	10803fd4 	ori	r2,r2,255
 402264c:	10c5883a 	add	r2,r2,r3
 4022650:	10800003 	ldbu	r2,0(r2)
 4022654:	10c03fe4 	muli	r3,r2,255
 4022658:	008100f4 	movhi	r2,1027
 402265c:	10843904 	addi	r2,r2,4324
 4022660:	80c7c83a 	sub	r3,r16,r3
 4022664:	10c5883a 	add	r2,r2,r3
 4022668:	10800003 	ldbu	r2,0(r2)
 402266c:	d8800e05 	stb	r2,56(sp)
 4022670:	003e3306 	br	4021f40 <aes_mixcolumns+0x338>
				ctx->state[3][i];
		nstate[1][i] = ctx->state[0][i] ^
				aes_mul(0x02, ctx->state[1][i]) ^
				aes_mul(0x03, ctx->state[2][i]) ^
				ctx->state[3][i];
		nstate[2][i] = ctx->state[0][i] ^
 4022674:	1d45883a 	add	r2,r3,r21
 4022678:	10c00003 	ldbu	r3,0(r2)
 402267c:	008003c4 	movi	r2,15
 4022680:	e0e1883a 	add	r16,fp,r3
 4022684:	81003fd4 	ori	r4,r16,255
 4022688:	1100b536 	bltu	r2,r4,4022960 <aes_mixcolumns+0xd58>
 402268c:	8004913a 	slli	r2,r16,4
 4022690:	00c100f4 	movhi	r3,1027
 4022694:	18f72704 	addi	r3,r3,-9060
 4022698:	10803fd4 	ori	r2,r2,255
 402269c:	10c5883a 	add	r2,r2,r3
 40226a0:	10800003 	ldbu	r2,0(r2)
 40226a4:	10c03fe4 	muli	r3,r2,255
 40226a8:	008100f4 	movhi	r2,1027
 40226ac:	10843904 	addi	r2,r2,4324
 40226b0:	80c7c83a 	sub	r3,r16,r3
 40226b4:	10c5883a 	add	r2,r2,r3
 40226b8:	10800003 	ldbu	r2,0(r2)
 40226bc:	d8800b05 	stb	r2,44(sp)
 40226c0:	003e0306 	br	4021ed0 <aes_mixcolumns+0x2c8>
	for(i = 0; i < 4; i++) {
		nstate[0][i] = aes_mul(0x02, ctx->state[0][i]) ^ 
				aes_mul(0x03, ctx->state[1][i]) ^
				ctx->state[2][i] ^
				ctx->state[3][i];
		nstate[1][i] = ctx->state[0][i] ^
 40226c4:	1d45883a 	add	r2,r3,r21
 40226c8:	10c00003 	ldbu	r3,0(r2)
 40226cc:	008003c4 	movi	r2,15
 40226d0:	e0e1883a 	add	r16,fp,r3
 40226d4:	81003fd4 	ori	r4,r16,255
 40226d8:	11009d36 	bltu	r2,r4,4022950 <aes_mixcolumns+0xd48>
 40226dc:	8004913a 	slli	r2,r16,4
 40226e0:	00c100f4 	movhi	r3,1027
 40226e4:	18f72704 	addi	r3,r3,-9060
 40226e8:	10803fd4 	ori	r2,r2,255
 40226ec:	10c5883a 	add	r2,r2,r3
 40226f0:	10800003 	ldbu	r2,0(r2)
 40226f4:	10c03fe4 	muli	r3,r2,255
 40226f8:	008100f4 	movhi	r2,1027
 40226fc:	10843904 	addi	r2,r2,4324
 4022700:	80c7c83a 	sub	r3,r16,r3
 4022704:	10c5883a 	add	r2,r2,r3
 4022708:	10800003 	ldbu	r2,0(r2)
 402270c:	d8800805 	stb	r2,32(sp)
 4022710:	003dd306 	br	4021e60 <aes_mixcolumns+0x258>
{
	unsigned char nstate[4][4];
	int i;
	
	for(i = 0; i < 4; i++) {
		nstate[0][i] = aes_mul(0x02, ctx->state[0][i]) ^ 
 4022714:	1d45883a 	add	r2,r3,r21
 4022718:	10c00003 	ldbu	r3,0(r2)
 402271c:	008003c4 	movi	r2,15
 4022720:	e0e1883a 	add	r16,fp,r3
 4022724:	81003fd4 	ori	r4,r16,255
 4022728:	11008536 	bltu	r2,r4,4022940 <aes_mixcolumns+0xd38>
 402272c:	8004913a 	slli	r2,r16,4
 4022730:	00c100f4 	movhi	r3,1027
 4022734:	18f72704 	addi	r3,r3,-9060
 4022738:	10803fd4 	ori	r2,r2,255
 402273c:	10c5883a 	add	r2,r2,r3
 4022740:	10800003 	ldbu	r2,0(r2)
 4022744:	10c03fe4 	muli	r3,r2,255
 4022748:	008100f4 	movhi	r2,1027
 402274c:	10843904 	addi	r2,r2,4324
 4022750:	80c7c83a 	sub	r3,r16,r3
 4022754:	10c5883a 	add	r2,r2,r3
 4022758:	10800003 	ldbu	r2,0(r2)
 402275c:	d8800505 	stb	r2,20(sp)
 4022760:	003da006 	br	4021de4 <aes_mixcolumns+0x1dc>
				ctx->state[3][i];
		nstate[2][i] = ctx->state[0][i] ^
				ctx->state[1][i] ^
				aes_mul(0x02, ctx->state[2][i]) ^
				aes_mul(0x03, ctx->state[3][i]);
		nstate[3][i] = aes_mul(0x03, ctx->state[0][i]) ^
 4022764:	1545883a 	add	r2,r2,r21
 4022768:	10c00003 	ldbu	r3,0(r2)
 402276c:	008003c4 	movi	r2,15
 4022770:	e0e1883a 	add	r16,fp,r3
 4022774:	81003fd4 	ori	r4,r16,255
 4022778:	11006d36 	bltu	r2,r4,4022930 <aes_mixcolumns+0xd28>
 402277c:	8004913a 	slli	r2,r16,4
 4022780:	00c100f4 	movhi	r3,1027
 4022784:	18f72704 	addi	r3,r3,-9060
 4022788:	10803fd4 	ori	r2,r2,255
 402278c:	10c5883a 	add	r2,r2,r3
 4022790:	10800003 	ldbu	r2,0(r2)
 4022794:	10c03fe4 	muli	r3,r2,255
 4022798:	008100f4 	movhi	r2,1027
 402279c:	10843904 	addi	r2,r2,4324
 40227a0:	80c7c83a 	sub	r3,r16,r3
 40227a4:	10c5883a 	add	r2,r2,r3
 40227a8:	10c00003 	ldbu	r3,0(r2)
 40227ac:	003d8406 	br	4021dc0 <aes_mixcolumns+0x1b8>
 40227b0:	1d45883a 	add	r2,r3,r21
 40227b4:	10c00003 	ldbu	r3,0(r2)
 40227b8:	008003c4 	movi	r2,15
 40227bc:	b8e1883a 	add	r16,r23,r3
 40227c0:	81003fd4 	ori	r4,r16,255
 40227c4:	11005636 	bltu	r2,r4,4022920 <aes_mixcolumns+0xd18>
 40227c8:	8004913a 	slli	r2,r16,4
 40227cc:	00c100f4 	movhi	r3,1027
 40227d0:	18f72704 	addi	r3,r3,-9060
 40227d4:	10803fd4 	ori	r2,r2,255
 40227d8:	10c5883a 	add	r2,r2,r3
 40227dc:	10800003 	ldbu	r2,0(r2)
 40227e0:	10c03fe4 	muli	r3,r2,255
 40227e4:	008100f4 	movhi	r2,1027
 40227e8:	10843904 	addi	r2,r2,4324
 40227ec:	80c7c83a 	sub	r3,r16,r3
 40227f0:	10c5883a 	add	r2,r2,r3
 40227f4:	10800003 	ldbu	r2,0(r2)
 40227f8:	d8800f05 	stb	r2,60(sp)
 40227fc:	003d6d06 	br	4021db4 <aes_mixcolumns+0x1ac>
				ctx->state[3][i];
		nstate[1][i] = ctx->state[0][i] ^
				aes_mul(0x02, ctx->state[1][i]) ^
				aes_mul(0x03, ctx->state[2][i]) ^
				ctx->state[3][i];
		nstate[2][i] = ctx->state[0][i] ^
 4022800:	1d45883a 	add	r2,r3,r21
 4022804:	10c00003 	ldbu	r3,0(r2)
 4022808:	008003c4 	movi	r2,15
 402280c:	e0e1883a 	add	r16,fp,r3
 4022810:	81003fd4 	ori	r4,r16,255
 4022814:	11003e36 	bltu	r2,r4,4022910 <aes_mixcolumns+0xd08>
 4022818:	8004913a 	slli	r2,r16,4
 402281c:	00c100f4 	movhi	r3,1027
 4022820:	18f72704 	addi	r3,r3,-9060
 4022824:	10803fd4 	ori	r2,r2,255
 4022828:	10c5883a 	add	r2,r2,r3
 402282c:	10800003 	ldbu	r2,0(r2)
 4022830:	10c03fe4 	muli	r3,r2,255
 4022834:	008100f4 	movhi	r2,1027
 4022838:	10843904 	addi	r2,r2,4324
 402283c:	80c7c83a 	sub	r3,r16,r3
 4022840:	10c5883a 	add	r2,r2,r3
 4022844:	10800003 	ldbu	r2,0(r2)
 4022848:	d8800c05 	stb	r2,48(sp)
 402284c:	003d3d06 	br	4021d44 <aes_mixcolumns+0x13c>
	for(i = 0; i < 4; i++) {
		nstate[0][i] = aes_mul(0x02, ctx->state[0][i]) ^ 
				aes_mul(0x03, ctx->state[1][i]) ^
				ctx->state[2][i] ^
				ctx->state[3][i];
		nstate[1][i] = ctx->state[0][i] ^
 4022850:	1d45883a 	add	r2,r3,r21
 4022854:	10c00003 	ldbu	r3,0(r2)
 4022858:	008003c4 	movi	r2,15
 402285c:	e0e1883a 	add	r16,fp,r3
 4022860:	81003fd4 	ori	r4,r16,255
 4022864:	11002636 	bltu	r2,r4,4022900 <aes_mixcolumns+0xcf8>
 4022868:	8004913a 	slli	r2,r16,4
 402286c:	00c100f4 	movhi	r3,1027
 4022870:	18f72704 	addi	r3,r3,-9060
 4022874:	10803fd4 	ori	r2,r2,255
 4022878:	10c5883a 	add	r2,r2,r3
 402287c:	10800003 	ldbu	r2,0(r2)
 4022880:	10c03fe4 	muli	r3,r2,255
 4022884:	008100f4 	movhi	r2,1027
 4022888:	10843904 	addi	r2,r2,4324
 402288c:	80c7c83a 	sub	r3,r16,r3
 4022890:	10c5883a 	add	r2,r2,r3
 4022894:	10800003 	ldbu	r2,0(r2)
 4022898:	d8800905 	stb	r2,36(sp)
 402289c:	003d0d06 	br	4021cd4 <aes_mixcolumns+0xcc>
{
	unsigned char nstate[4][4];
	int i;
	
	for(i = 0; i < 4; i++) {
		nstate[0][i] = aes_mul(0x02, ctx->state[0][i]) ^ 
 40228a0:	1545883a 	add	r2,r2,r21
 40228a4:	10c00003 	ldbu	r3,0(r2)
 40228a8:	008003c4 	movi	r2,15
 40228ac:	1f21883a 	add	r16,r3,fp
 40228b0:	81003fd4 	ori	r4,r16,255
 40228b4:	11000e36 	bltu	r2,r4,40228f0 <aes_mixcolumns+0xce8>
 40228b8:	8004913a 	slli	r2,r16,4
 40228bc:	00c100f4 	movhi	r3,1027
 40228c0:	18f72704 	addi	r3,r3,-9060
 40228c4:	10803fd4 	ori	r2,r2,255
 40228c8:	10c5883a 	add	r2,r2,r3
 40228cc:	10800003 	ldbu	r2,0(r2)
 40228d0:	10c03fe4 	muli	r3,r2,255
 40228d4:	008100f4 	movhi	r2,1027
 40228d8:	10843904 	addi	r2,r2,4324
 40228dc:	80c7c83a 	sub	r3,r16,r3
 40228e0:	10c5883a 	add	r2,r2,r3
 40228e4:	10800003 	ldbu	r2,0(r2)
 40228e8:	d8800605 	stb	r2,24(sp)
 40228ec:	003cda06 	br	4021c58 <aes_mixcolumns+0x50>
 40228f0:	8009883a 	mov	r4,r16
 40228f4:	01403fc4 	movi	r5,255
 40228f8:	40265d40 	call	40265d4 <__divsi3>
 40228fc:	003ff406 	br	40228d0 <aes_mixcolumns+0xcc8>
				aes_mul(0x03, ctx->state[1][i]) ^
				ctx->state[2][i] ^
				ctx->state[3][i];
		nstate[1][i] = ctx->state[0][i] ^
 4022900:	8009883a 	mov	r4,r16
 4022904:	01403fc4 	movi	r5,255
 4022908:	40265d40 	call	40265d4 <__divsi3>
 402290c:	003fdc06 	br	4022880 <aes_mixcolumns+0xc78>
				aes_mul(0x02, ctx->state[1][i]) ^
				aes_mul(0x03, ctx->state[2][i]) ^
				ctx->state[3][i];
		nstate[2][i] = ctx->state[0][i] ^
 4022910:	8009883a 	mov	r4,r16
 4022914:	01403fc4 	movi	r5,255
 4022918:	40265d40 	call	40265d4 <__divsi3>
 402291c:	003fc406 	br	4022830 <aes_mixcolumns+0xc28>
				ctx->state[1][i] ^
				aes_mul(0x02, ctx->state[2][i]) ^
				aes_mul(0x03, ctx->state[3][i]);
		nstate[3][i] = aes_mul(0x03, ctx->state[0][i]) ^
 4022920:	8009883a 	mov	r4,r16
 4022924:	01403fc4 	movi	r5,255
 4022928:	40265d40 	call	40265d4 <__divsi3>
 402292c:	003fac06 	br	40227e0 <aes_mixcolumns+0xbd8>
 4022930:	8009883a 	mov	r4,r16
 4022934:	01403fc4 	movi	r5,255
 4022938:	40265d40 	call	40265d4 <__divsi3>
 402293c:	003f9506 	br	4022794 <aes_mixcolumns+0xb8c>
{
	unsigned char nstate[4][4];
	int i;
	
	for(i = 0; i < 4; i++) {
		nstate[0][i] = aes_mul(0x02, ctx->state[0][i]) ^ 
 4022940:	8009883a 	mov	r4,r16
 4022944:	01403fc4 	movi	r5,255
 4022948:	40265d40 	call	40265d4 <__divsi3>
 402294c:	003f7d06 	br	4022744 <aes_mixcolumns+0xb3c>
				aes_mul(0x03, ctx->state[1][i]) ^
				ctx->state[2][i] ^
				ctx->state[3][i];
		nstate[1][i] = ctx->state[0][i] ^
 4022950:	8009883a 	mov	r4,r16
 4022954:	01403fc4 	movi	r5,255
 4022958:	40265d40 	call	40265d4 <__divsi3>
 402295c:	003f6506 	br	40226f4 <aes_mixcolumns+0xaec>
				aes_mul(0x02, ctx->state[1][i]) ^
				aes_mul(0x03, ctx->state[2][i]) ^
				ctx->state[3][i];
		nstate[2][i] = ctx->state[0][i] ^
 4022960:	8009883a 	mov	r4,r16
 4022964:	01403fc4 	movi	r5,255
 4022968:	40265d40 	call	40265d4 <__divsi3>
 402296c:	003f4d06 	br	40226a4 <aes_mixcolumns+0xa9c>
				ctx->state[1][i] ^
				aes_mul(0x02, ctx->state[2][i]) ^
				aes_mul(0x03, ctx->state[3][i]);
		nstate[3][i] = aes_mul(0x03, ctx->state[0][i]) ^
 4022970:	8009883a 	mov	r4,r16
 4022974:	01403fc4 	movi	r5,255
 4022978:	40265d40 	call	40265d4 <__divsi3>
 402297c:	003f3506 	br	4022654 <aes_mixcolumns+0xa4c>
 4022980:	8009883a 	mov	r4,r16
 4022984:	01403fc4 	movi	r5,255
 4022988:	40265d40 	call	40265d4 <__divsi3>
 402298c:	003f1e06 	br	4022608 <aes_mixcolumns+0xa00>
{
	unsigned char nstate[4][4];
	int i;
	
	for(i = 0; i < 4; i++) {
		nstate[0][i] = aes_mul(0x02, ctx->state[0][i]) ^ 
 4022990:	8009883a 	mov	r4,r16
 4022994:	01403fc4 	movi	r5,255
 4022998:	40265d40 	call	40265d4 <__divsi3>
 402299c:	003f0606 	br	40225b8 <aes_mixcolumns+0x9b0>
				aes_mul(0x03, ctx->state[1][i]) ^
				ctx->state[2][i] ^
				ctx->state[3][i];
		nstate[1][i] = ctx->state[0][i] ^
 40229a0:	8009883a 	mov	r4,r16
 40229a4:	01403fc4 	movi	r5,255
 40229a8:	40265d40 	call	40265d4 <__divsi3>
 40229ac:	003eee06 	br	4022568 <aes_mixcolumns+0x960>
				aes_mul(0x02, ctx->state[1][i]) ^
				aes_mul(0x03, ctx->state[2][i]) ^
				ctx->state[3][i];
		nstate[2][i] = ctx->state[0][i] ^
 40229b0:	8009883a 	mov	r4,r16
 40229b4:	01403fc4 	movi	r5,255
 40229b8:	40265d40 	call	40265d4 <__divsi3>
 40229bc:	003ed606 	br	4022518 <aes_mixcolumns+0x910>
				ctx->state[1][i] ^
				aes_mul(0x02, ctx->state[2][i]) ^
				aes_mul(0x03, ctx->state[3][i]);
		nstate[3][i] = aes_mul(0x03, ctx->state[0][i]) ^
 40229c0:	8009883a 	mov	r4,r16
 40229c4:	01403fc4 	movi	r5,255
 40229c8:	40265d40 	call	40265d4 <__divsi3>
 40229cc:	003ebe06 	br	40224c8 <aes_mixcolumns+0x8c0>
 40229d0:	8009883a 	mov	r4,r16
 40229d4:	01403fc4 	movi	r5,255
 40229d8:	40265d40 	call	40265d4 <__divsi3>
 40229dc:	003ea706 	br	402247c <aes_mixcolumns+0x874>
{
	unsigned char nstate[4][4];
	int i;
	
	for(i = 0; i < 4; i++) {
		nstate[0][i] = aes_mul(0x02, ctx->state[0][i]) ^ 
 40229e0:	8009883a 	mov	r4,r16
 40229e4:	01403fc4 	movi	r5,255
 40229e8:	40265d40 	call	40265d4 <__divsi3>
 40229ec:	003e8f06 	br	402242c <aes_mixcolumns+0x824>
				ctx->state[3][i];
		nstate[2][i] = ctx->state[0][i] ^
				ctx->state[1][i] ^
				aes_mul(0x02, ctx->state[2][i]) ^
				aes_mul(0x03, ctx->state[3][i]);
		nstate[3][i] = aes_mul(0x03, ctx->state[0][i]) ^
 40229f0:	8009883a 	mov	r4,r16
 40229f4:	01403fc4 	movi	r5,255
 40229f8:	40265d40 	call	40265d4 <__divsi3>
 40229fc:	003e7806 	br	40223e0 <aes_mixcolumns+0x7d8>
 4022a00:	8009883a 	mov	r4,r16
 4022a04:	01403fc4 	movi	r5,255
 4022a08:	40265d40 	call	40265d4 <__divsi3>
 4022a0c:	003e6106 	br	4022394 <aes_mixcolumns+0x78c>
	for(i = 0; i < 4; i++) {
		nstate[0][i] = aes_mul(0x02, ctx->state[0][i]) ^ 
				aes_mul(0x03, ctx->state[1][i]) ^
				ctx->state[2][i] ^
				ctx->state[3][i];
		nstate[1][i] = ctx->state[0][i] ^
 4022a10:	8009883a 	mov	r4,r16
 4022a14:	01403fc4 	movi	r5,255
 4022a18:	40265d40 	call	40265d4 <__divsi3>
 4022a1c:	003e4906 	br	4022344 <aes_mixcolumns+0x73c>
				aes_mul(0x02, ctx->state[1][i]) ^
				aes_mul(0x03, ctx->state[2][i]) ^
				ctx->state[3][i];
		nstate[2][i] = ctx->state[0][i] ^
 4022a20:	8009883a 	mov	r4,r16
 4022a24:	01403fc4 	movi	r5,255
 4022a28:	40265d40 	call	40265d4 <__divsi3>
 4022a2c:	003e3106 	br	40222f4 <aes_mixcolumns+0x6ec>
 4022a30:	8009883a 	mov	r4,r16
 4022a34:	01403fc4 	movi	r5,255
 4022a38:	40265d40 	call	40265d4 <__divsi3>
 4022a3c:	003df806 	br	4022220 <aes_mixcolumns+0x618>
	for(i = 0; i < 4; i++) {
		nstate[0][i] = aes_mul(0x02, ctx->state[0][i]) ^ 
				aes_mul(0x03, ctx->state[1][i]) ^
				ctx->state[2][i] ^
				ctx->state[3][i];
		nstate[1][i] = ctx->state[0][i] ^
 4022a40:	8009883a 	mov	r4,r16
 4022a44:	01403fc4 	movi	r5,255
 4022a48:	40265d40 	call	40265d4 <__divsi3>
 4022a4c:	003dd806 	br	40221b0 <aes_mixcolumns+0x5a8>
{
	unsigned char nstate[4][4];
	int i;
	
	for(i = 0; i < 4; i++) {
		nstate[0][i] = aes_mul(0x02, ctx->state[0][i]) ^ 
 4022a50:	8009883a 	mov	r4,r16
 4022a54:	01403fc4 	movi	r5,255
 4022a58:	40265d40 	call	40265d4 <__divsi3>
 4022a5c:	003db606 	br	4022138 <aes_mixcolumns+0x530>
				ctx->state[3][i];
		nstate[1][i] = ctx->state[0][i] ^
				aes_mul(0x02, ctx->state[1][i]) ^
				aes_mul(0x03, ctx->state[2][i]) ^
				ctx->state[3][i];
		nstate[2][i] = ctx->state[0][i] ^
 4022a60:	8009883a 	mov	r4,r16
 4022a64:	01403fc4 	movi	r5,255
 4022a68:	40265d40 	call	40265d4 <__divsi3>
 4022a6c:	003d8906 	br	4022094 <aes_mixcolumns+0x48c>
	for(i = 0; i < 4; i++) {
		nstate[0][i] = aes_mul(0x02, ctx->state[0][i]) ^ 
				aes_mul(0x03, ctx->state[1][i]) ^
				ctx->state[2][i] ^
				ctx->state[3][i];
		nstate[1][i] = ctx->state[0][i] ^
 4022a70:	8009883a 	mov	r4,r16
 4022a74:	01403fc4 	movi	r5,255
 4022a78:	40265d40 	call	40265d4 <__divsi3>
 4022a7c:	003d6906 	br	4022024 <aes_mixcolumns+0x41c>
{
	unsigned char nstate[4][4];
	int i;
	
	for(i = 0; i < 4; i++) {
		nstate[0][i] = aes_mul(0x02, ctx->state[0][i]) ^ 
 4022a80:	8009883a 	mov	r4,r16
 4022a84:	01403fc4 	movi	r5,255
 4022a88:	40265d40 	call	40265d4 <__divsi3>
 4022a8c:	003d4706 	br	4021fac <aes_mixcolumns+0x3a4>
				ctx->state[3][i];
		nstate[1][i] = ctx->state[0][i] ^
				aes_mul(0x02, ctx->state[1][i]) ^
				aes_mul(0x03, ctx->state[2][i]) ^
				ctx->state[3][i];
		nstate[2][i] = ctx->state[0][i] ^
 4022a90:	8009883a 	mov	r4,r16
 4022a94:	01403fc4 	movi	r5,255
 4022a98:	40265d40 	call	40265d4 <__divsi3>
 4022a9c:	003d1a06 	br	4021f08 <aes_mixcolumns+0x300>
	for(i = 0; i < 4; i++) {
		nstate[0][i] = aes_mul(0x02, ctx->state[0][i]) ^ 
				aes_mul(0x03, ctx->state[1][i]) ^
				ctx->state[2][i] ^
				ctx->state[3][i];
		nstate[1][i] = ctx->state[0][i] ^
 4022aa0:	8009883a 	mov	r4,r16
 4022aa4:	01403fc4 	movi	r5,255
 4022aa8:	40265d40 	call	40265d4 <__divsi3>
 4022aac:	003cfa06 	br	4021e98 <aes_mixcolumns+0x290>
{
	unsigned char nstate[4][4];
	int i;
	
	for(i = 0; i < 4; i++) {
		nstate[0][i] = aes_mul(0x02, ctx->state[0][i]) ^ 
 4022ab0:	8009883a 	mov	r4,r16
 4022ab4:	01403fc4 	movi	r5,255
 4022ab8:	40265d40 	call	40265d4 <__divsi3>
 4022abc:	003cd806 	br	4021e20 <aes_mixcolumns+0x218>
				ctx->state[3][i];
		nstate[1][i] = ctx->state[0][i] ^
				aes_mul(0x02, ctx->state[1][i]) ^
				aes_mul(0x03, ctx->state[2][i]) ^
				ctx->state[3][i];
		nstate[2][i] = ctx->state[0][i] ^
 4022ac0:	8009883a 	mov	r4,r16
 4022ac4:	01403fc4 	movi	r5,255
 4022ac8:	40265d40 	call	40265d4 <__divsi3>
 4022acc:	003cab06 	br	4021d7c <aes_mixcolumns+0x174>
	for(i = 0; i < 4; i++) {
		nstate[0][i] = aes_mul(0x02, ctx->state[0][i]) ^ 
				aes_mul(0x03, ctx->state[1][i]) ^
				ctx->state[2][i] ^
				ctx->state[3][i];
		nstate[1][i] = ctx->state[0][i] ^
 4022ad0:	8009883a 	mov	r4,r16
 4022ad4:	01403fc4 	movi	r5,255
 4022ad8:	40265d40 	call	40265d4 <__divsi3>
 4022adc:	003c8b06 	br	4021d0c <aes_mixcolumns+0x104>
{
	unsigned char nstate[4][4];
	int i;
	
	for(i = 0; i < 4; i++) {
		nstate[0][i] = aes_mul(0x02, ctx->state[0][i]) ^ 
 4022ae0:	8009883a 	mov	r4,r16
 4022ae4:	01403fc4 	movi	r5,255
 4022ae8:	40265d40 	call	40265d4 <__divsi3>
 4022aec:	003c6906 	br	4021c94 <aes_mixcolumns+0x8c>

04022af0 <aes_shiftrows>:
	for(i = 0; i < 16; i++) {
		int x, y;

		x = i & 0x03;
		y = i >> 2;
		nstate[x][y] = ctx->state[x][(y+x) & 0x03];
 4022af0:	20800003 	ldbu	r2,0(r4)
		ctx->state[x][y] = g_aes_sbox[ctx->state[x][y]];
	}
}

void aes_shiftrows(aes_ctx_t *ctx)
{
 4022af4:	defffc04 	addi	sp,sp,-16
	for(i = 0; i < 16; i++) {
		int x, y;

		x = i & 0x03;
		y = i >> 2;
		nstate[x][y] = ctx->state[x][(y+x) & 0x03];
 4022af8:	20c00043 	ldbu	r3,1(r4)
 4022afc:	21400083 	ldbu	r5,2(r4)
 4022b00:	218000c3 	ldbu	r6,3(r4)
 4022b04:	d8800005 	stb	r2,0(sp)
 4022b08:	20800143 	ldbu	r2,5(r4)
 4022b0c:	d8c00045 	stb	r3,1(sp)
 4022b10:	d9400085 	stb	r5,2(sp)
 4022b14:	d98000c5 	stb	r6,3(sp)
 4022b18:	20c00283 	ldbu	r3,10(r4)
 4022b1c:	214003c3 	ldbu	r5,15(r4)
 4022b20:	21800183 	ldbu	r6,6(r4)
 4022b24:	21c002c3 	ldbu	r7,11(r4)
 4022b28:	22000303 	ldbu	r8,12(r4)
 4022b2c:	224001c3 	ldbu	r9,7(r4)
 4022b30:	22800203 	ldbu	r10,8(r4)
 4022b34:	22c00343 	ldbu	r11,13(r4)
 4022b38:	23000103 	ldbu	r12,4(r4)
 4022b3c:	23400243 	ldbu	r13,9(r4)
 4022b40:	23800383 	ldbu	r14,14(r4)
 4022b44:	d8800105 	stb	r2,4(sp)
	}

	memcpy(ctx->state, nstate, sizeof(ctx->state));
 4022b48:	d8800017 	ldw	r2,0(sp)
	for(i = 0; i < 16; i++) {
		int x, y;

		x = i & 0x03;
		y = i >> 2;
		nstate[x][y] = ctx->state[x][(y+x) & 0x03];
 4022b4c:	d8c00205 	stb	r3,8(sp)
 4022b50:	d9400305 	stb	r5,12(sp)
 4022b54:	d9800145 	stb	r6,5(sp)
 4022b58:	d9c00245 	stb	r7,9(sp)
 4022b5c:	da000345 	stb	r8,13(sp)
 4022b60:	da400185 	stb	r9,6(sp)
 4022b64:	da800285 	stb	r10,10(sp)
 4022b68:	dac00385 	stb	r11,14(sp)
 4022b6c:	db0001c5 	stb	r12,7(sp)
 4022b70:	db4002c5 	stb	r13,11(sp)
 4022b74:	db8003c5 	stb	r14,15(sp)
	}

	memcpy(ctx->state, nstate, sizeof(ctx->state));
 4022b78:	20800015 	stw	r2,0(r4)
 4022b7c:	d8c00217 	ldw	r3,8(sp)
 4022b80:	d9400317 	ldw	r5,12(sp)
 4022b84:	d8800117 	ldw	r2,4(sp)
 4022b88:	20c00215 	stw	r3,8(r4)
 4022b8c:	21400315 	stw	r5,12(r4)
 4022b90:	20800115 	stw	r2,4(r4)
}
 4022b94:	dec00404 	addi	sp,sp,16
 4022b98:	f800283a 	ret

04022b9c <init_aes>:

unsigned char g_aes_logt[256], g_aes_ilogt[256];
unsigned char g_aes_sbox[256], g_aes_isbox[256];

void init_aes()
{
 4022b9c:	defff704 	addi	sp,sp,-36
 4022ba0:	df000815 	stw	fp,32(sp)
 4022ba4:	070100f4 	movhi	fp,1027
 4022ba8:	e7043904 	addi	fp,fp,4324
 4022bac:	0011883a 	mov	r8,zero
 4022bb0:	01800044 	movi	r6,1
 4022bb4:	e013883a 	mov	r9,fp
 4022bb8:	02c100f4 	movhi	r11,1027
 4022bbc:	5ac4f904 	addi	r11,r11,5092
 4022bc0:	02803fc4 	movi	r10,255
 4022bc4:	ddc00715 	stw	r23,28(sp)
 4022bc8:	dd800615 	stw	r22,24(sp)
 4022bcc:	dd400515 	stw	r21,20(sp)
 4022bd0:	dd000415 	stw	r20,16(sp)
 4022bd4:	dcc00315 	stw	r19,12(sp)
 4022bd8:	dc800215 	stw	r18,8(sp)
 4022bdc:	dc400115 	stw	r17,4(sp)
 4022be0:	dc000015 	stw	r16,0(sp)
 4022be4:	00000106 	br	4022bec <init_aes+0x50>
	// build logarithm table and it's inverse
	gen = 1;
	for(i = 0; i < 0xff; i++) {
		g_aes_logt[gen]  = i;
		g_aes_ilogt[i]   = gen;
		gen = aes_mul_manual(gen, AES_GEN);
 4022be8:	100d883a 	mov	r6,r2
	unsigned char gen;

	// build logarithm table and it's inverse
	gen = 1;
	for(i = 0; i < 0xff; i++) {
		g_aes_logt[gen]  = i;
 4022bec:	30803fcc 	andi	r2,r6,255
inline unsigned char aes_mul_manual(unsigned char a, unsigned char b)
{
	register unsigned short ac;
	register unsigned char ret;

	ac = a;
 4022bf0:	10c03fcc 	andi	r3,r2,255
	ret = 0;
	while(b) {
		if(b & 0x01)
			ret ^= ac;
		ac <<= 1;
 4022bf4:	18cf883a 	add	r7,r3,r3
	unsigned char gen;

	// build logarithm table and it's inverse
	gen = 1;
	for(i = 0; i < 0xff; i++) {
		g_aes_logt[gen]  = i;
 4022bf8:	12c5883a 	add	r2,r2,r11
	while(b) {
		if(b & 0x01)
			ret ^= ac;
		ac <<= 1;
		b >>= 1;
		if(ac & 0x0100)
 4022bfc:	3900400c 	andi	r4,r7,256

	// build logarithm table and it's inverse
	gen = 1;
	for(i = 0; i < 0xff; i++) {
		g_aes_logt[gen]  = i;
		g_aes_ilogt[i]   = gen;
 4022c00:	49800005 	stb	r6,0(r9)
	unsigned char gen;

	// build logarithm table and it's inverse
	gen = 1;
	for(i = 0; i < 0xff; i++) {
		g_aes_logt[gen]  = i;
 4022c04:	12000005 	stb	r8,0(r2)
	ac = a;
	ret = 0;
	while(b) {
		if(b & 0x01)
			ret ^= ac;
		ac <<= 1;
 4022c08:	380b883a 	mov	r5,r7
	int i;
	unsigned char gen;

	// build logarithm table and it's inverse
	gen = 1;
	for(i = 0; i < 0xff; i++) {
 4022c0c:	42000044 	addi	r8,r8,1
 4022c10:	4a400044 	addi	r9,r9,1
	while(b) {
		if(b & 0x01)
			ret ^= ac;
		ac <<= 1;
		b >>= 1;
		if(ac & 0x0100)
 4022c14:	20000126 	beq	r4,zero,4022c1c <init_aes+0x80>
			ac ^= AES_RPOL;
 4022c18:	394046dc 	xori	r5,r7,283

	ac = a;
	ret = 0;
	while(b) {
		if(b & 0x01)
			ret ^= ac;
 4022c1c:	1944f03a 	xor	r2,r3,r5
	int i;
	unsigned char gen;

	// build logarithm table and it's inverse
	gen = 1;
	for(i = 0; i < 0xff; i++) {
 4022c20:	42bff11e 	bne	r8,r10,4022be8 <init_aes+0x4c>
 4022c24:	0007883a 	mov	r3,zero
 4022c28:	0029883a 	mov	r20,zero
 4022c2c:	058100f4 	movhi	r22,1027
 4022c30:	b584f904 	addi	r22,r22,5092
 4022c34:	054100f4 	movhi	r21,1027
 4022c38:	ad44b904 	addi	r21,r21,4836
 4022c3c:	05c100f4 	movhi	r23,1027
 4022c40:	bdc47904 	addi	r23,r23,4580

		g_aes_sbox[i] = 0;
		for(bi = 0; bi < 8; bi++) {
			// based on transformation 5.1
			// could also be done with a loop based on the matrix
			g_aes_sbox[i] |= ((inv & (1<<bi)?1:0)
 4022c44:	1813d0fa 	srai	r9,r3,3
 4022c48:	1825d17a 	srai	r18,r3,5
 4022c4c:	181fd1ba 	srai	r15,r3,6
 4022c50:	180fd07a 	srai	r7,r3,1
 4022c54:	180dd0ba 	srai	r6,r3,2
 4022c58:	1822d1fa 	srli	r17,r3,7
 4022c5c:	1811d13a 	srai	r8,r3,4
 4022c60:	9480004c 	andi	r18,r18,1
 4022c64:	7bc0004c 	andi	r15,r15,1
 4022c68:	39c0004c 	andi	r7,r7,1
 4022c6c:	3180004c 	andi	r6,r6,1
 4022c70:	4a40004c 	andi	r9,r9,1
 4022c74:	4200004c 	andi	r8,r8,1
 4022c78:	18c0004c 	andi	r3,r3,1
 4022c7c:	799cf03a 	xor	r14,r15,r6
 4022c80:	91daf03a 	xor	r13,r18,r7
 4022c84:	8a66f03a 	xor	r19,r17,r9
 4022c88:	7c4af03a 	xor	r5,r15,r17
 4022c8c:	1a04f03a 	xor	r2,r3,r8
 4022c90:	19e0f03a 	xor	r16,r3,r7
 4022c94:	3b96f03a 	xor	r11,r7,r14
 4022c98:	2940005c 	xori	r5,r5,1
 4022c9c:	1c48f03a 	xor	r4,r3,r17
 4022ca0:	93d4f03a 	xor	r10,r18,r15
 4022ca4:	1b46f03a 	xor	r3,r3,r13
 4022ca8:	34d8f03a 	xor	r12,r6,r19
 4022cac:	1946f03a 	xor	r3,r3,r5
 4022cb0:	398ef03a 	xor	r7,r7,r6
 4022cb4:	124af03a 	xor	r5,r2,r9
 4022cb8:	324cf03a 	xor	r6,r6,r9
 4022cbc:	22c8f03a 	xor	r4,r4,r11
 4022cc0:	8320f03a 	xor	r16,r16,r12
 4022cc4:	5280005c 	xori	r10,r10,1
 4022cc8:	1444f03a 	xor	r2,r2,r17
 4022ccc:	18c7883a 	add	r3,r3,r3
 4022cd0:	435af03a 	xor	r13,r8,r13
 4022cd4:	4252f03a 	xor	r9,r8,r9
 4022cd8:	1284f03a 	xor	r2,r2,r10
 4022cdc:	394ef03a 	xor	r7,r7,r5
 4022ce0:	2109883a 	add	r4,r4,r4
 4022ce4:	802090fa 	slli	r16,r16,3
 4022ce8:	3180005c 	xori	r6,r6,1
 4022cec:	10c4b03a 	or	r2,r2,r3
 4022cf0:	2109883a 	add	r4,r4,r4
 4022cf4:	699af03a 	xor	r13,r13,r6
 4022cf8:	380e913a 	slli	r7,r7,4
 4022cfc:	939cf03a 	xor	r14,r18,r14
 4022d00:	4a40005c 	xori	r9,r9,1
 4022d04:	1104b03a 	or	r2,r2,r4
 4022d08:	725cf03a 	xor	r14,r14,r9
 4022d0c:	4490f03a 	xor	r8,r8,r18
 4022d10:	7cdef03a 	xor	r15,r15,r19
 4022d14:	681a917a 	slli	r13,r13,5
 4022d18:	1404b03a 	or	r2,r2,r16
 4022d1c:	43d0f03a 	xor	r8,r8,r15
 4022d20:	701c91ba 	slli	r14,r14,6
 4022d24:	11c4b03a 	or	r2,r2,r7
 4022d28:	401091fa 	slli	r8,r8,7
 4022d2c:	1344b03a 	or	r2,r2,r13
 4022d30:	1384b03a 	or	r2,r2,r14
 4022d34:	1204b03a 	or	r2,r2,r8
						^ (inv & (1 << ((bi+6) & 7))?1:0)
						^ (inv & (1 << ((bi+7) & 7))?1:0) 
						^ (AES_SBOX_CC & (1 << bi)?1:0)
			) << bi;
		}
		g_aes_isbox[g_aes_sbox[i]] = i;
 4022d38:	15c7883a 	add	r3,r2,r23

		g_aes_sbox[i] = 0;
		for(bi = 0; bi < 8; bi++) {
			// based on transformation 5.1
			// could also be done with a loop based on the matrix
			g_aes_sbox[i] |= ((inv & (1<<bi)?1:0)
 4022d3c:	a8800005 	stb	r2,0(r21)
						^ (inv & (1 << ((bi+6) & 7))?1:0)
						^ (inv & (1 << ((bi+7) & 7))?1:0) 
						^ (AES_SBOX_CC & (1 << bi)?1:0)
			) << bi;
		}
		g_aes_isbox[g_aes_sbox[i]] = i;
 4022d40:	1d000005 	stb	r20,0(r3)
		g_aes_ilogt[i]   = gen;
		gen = aes_mul_manual(gen, AES_GEN);
	}

	// build S-Box and it's inverse
	for(i = 0; i <= 0xff; i++) {
 4022d44:	00804004 	movi	r2,256
 4022d48:	a5000044 	addi	r20,r20,1
 4022d4c:	b5800044 	addi	r22,r22,1
 4022d50:	ad400044 	addi	r21,r21,1
						^ (inv & (1 << ((bi+6) & 7))?1:0)
						^ (inv & (1 << ((bi+7) & 7))?1:0) 
						^ (AES_SBOX_CC & (1 << bi)?1:0)
			) << bi;
		}
		g_aes_isbox[g_aes_sbox[i]] = i;
 4022d54:	010100f4 	movhi	r4,1027
 4022d58:	21047904 	addi	r4,r4,4580
		g_aes_ilogt[i]   = gen;
		gen = aes_mul_manual(gen, AES_GEN);
	}

	// build S-Box and it's inverse
	for(i = 0; i <= 0xff; i++) {
 4022d5c:	a0800826 	beq	r20,r2,4022d80 <init_aes+0x1e4>
	// build logarithm table and it's inverse
	gen = 1;
	for(i = 0; i < 0xff; i++) {
		g_aes_logt[gen]  = i;
		g_aes_ilogt[i]   = gen;
		gen = aes_mul_manual(gen, AES_GEN);
 4022d60:	0007883a 	mov	r3,zero
	}

	// build S-Box and it's inverse
	for(i = 0; i <= 0xff; i++) {
		char bi;
		unsigned char inv = aes_inv(i);
 4022d64:	a03fb726 	beq	r20,zero,4022c44 <init_aes+0xa8>
 4022d68:	b0c00003 	ldbu	r3,0(r22)
 4022d6c:	00803fc4 	movi	r2,255
 4022d70:	10c5c83a 	sub	r2,r2,r3
 4022d74:	1705883a 	add	r2,r2,fp
 4022d78:	10c00003 	ldbu	r3,0(r2)
 4022d7c:	003fb106 	br	4022c44 <init_aes+0xa8>
			) << bi;
		}
		g_aes_isbox[g_aes_sbox[i]] = i;
	}
	// warning: quickhack
	g_aes_sbox[1] = 0x7c;
 4022d80:	00c01f04 	movi	r3,124
 4022d84:	008100f4 	movhi	r2,1027
 4022d88:	1084b904 	addi	r2,r2,4836
 4022d8c:	10c00045 	stb	r3,1(r2)
	g_aes_isbox[0x7c] = 1;
 4022d90:	00800044 	movi	r2,1
 4022d94:	20801f05 	stb	r2,124(r4)
	g_aes_isbox[0x63] = 0;
 4022d98:	200018c5 	stb	zero,99(r4)
}
 4022d9c:	df000817 	ldw	fp,32(sp)
 4022da0:	ddc00717 	ldw	r23,28(sp)
 4022da4:	dd800617 	ldw	r22,24(sp)
 4022da8:	dd400517 	ldw	r21,20(sp)
 4022dac:	dd000417 	ldw	r20,16(sp)
 4022db0:	dcc00317 	ldw	r19,12(sp)
 4022db4:	dc800217 	ldw	r18,8(sp)
 4022db8:	dc400117 	ldw	r17,4(sp)
 4022dbc:	dc000017 	ldw	r16,0(sp)
 4022dc0:	dec00904 	addi	sp,sp,36
 4022dc4:	f800283a 	ret

04022dc8 <aes_encrypt>:
			((ctx->keysched[round*4+y] & (0xff << (x*8))) >> (x*8));
	}
}

void aes_encrypt(aes_ctx_t *ctx, unsigned char input[16], unsigned char output[16])
{
 4022dc8:	deffcd04 	addi	sp,sp,-204
 4022dcc:	df003115 	stw	fp,196(sp)
 4022dd0:	dcc02c15 	stw	r19,176(sp)
 4022dd4:	dc402a15 	stw	r17,168(sp)
 4022dd8:	dc002915 	stw	r16,164(sp)
 4022ddc:	dfc03215 	stw	ra,200(sp)
 4022de0:	ddc03015 	stw	r23,192(sp)
 4022de4:	dd802f15 	stw	r22,188(sp)
 4022de8:	dd402e15 	stw	r21,184(sp)
 4022dec:	dd002d15 	stw	r20,180(sp)
 4022df0:	dc802b15 	stw	r18,172(sp)
	int i;

	// copy input to state
	for(i = 0; i < 16; i++)
		ctx->state[i & 0x03][i >> 2] = input[i];
 4022df4:	29c00003 	ldbu	r7,0(r5)
	for(i = 0; i < 16; i++) {
		int x, y;

		x = i & 0x03;
		y = i >> 2;
		ctx->state[x][y] = ctx->state[x][y] ^
 4022df8:	22800617 	ldw	r10,24(r4)
			((ctx->keysched[round*4+y] & (0xff << (x*8))) >> (x*8));
	}
}

void aes_encrypt(aes_ctx_t *ctx, unsigned char input[16], unsigned char output[16])
{
 4022dfc:	2039883a 	mov	fp,r4
	int i;

	// copy input to state
	for(i = 0; i < 16; i++)
		ctx->state[i & 0x03][i >> 2] = input[i];
 4022e00:	21c00005 	stb	r7,0(r4)
 4022e04:	28800043 	ldbu	r2,1(r5)
	for(i = 0; i < 16; i++) {
		int x, y;

		x = i & 0x03;
		y = i >> 2;
		ctx->state[x][y] = ctx->state[x][y] ^
 4022e08:	50ffc00c 	andi	r3,r10,65280
 4022e0c:	1806d23a 	srli	r3,r3,8
{
	int i;

	// copy input to state
	for(i = 0; i < 16; i++)
		ctx->state[i & 0x03][i >> 2] = input[i];
 4022e10:	20800105 	stb	r2,4(r4)
 4022e14:	29000083 	ldbu	r4,2(r5)
	for(i = 0; i < 16; i++) {
		int x, y;

		x = i & 0x03;
		y = i >> 2;
		ctx->state[x][y] = ctx->state[x][y] ^
 4022e18:	1886f03a 	xor	r3,r3,r2
 4022e1c:	52003fec 	andhi	r8,r10,255
{
	int i;

	// copy input to state
	for(i = 0; i < 16; i++)
		ctx->state[i & 0x03][i >> 2] = input[i];
 4022e20:	e1000205 	stb	r4,8(fp)
 4022e24:	288000c3 	ldbu	r2,3(r5)
	for(i = 0; i < 16; i++) {
		int x, y;

		x = i & 0x03;
		y = i >> 2;
		ctx->state[x][y] = ctx->state[x][y] ^
 4022e28:	4010d43a 	srli	r8,r8,16
 4022e2c:	51cef03a 	xor	r7,r10,r7
{
	int i;

	// copy input to state
	for(i = 0; i < 16; i++)
		ctx->state[i & 0x03][i >> 2] = input[i];
 4022e30:	e0800305 	stb	r2,12(fp)
 4022e34:	2a400103 	ldbu	r9,4(r5)
	for(i = 0; i < 16; i++) {
		int x, y;

		x = i & 0x03;
		y = i >> 2;
		ctx->state[x][y] = ctx->state[x][y] ^
 4022e38:	4110f03a 	xor	r8,r8,r4
 4022e3c:	da001315 	stw	r8,76(sp)
{
	int i;

	// copy input to state
	for(i = 0; i < 16; i++)
		ctx->state[i & 0x03][i >> 2] = input[i];
 4022e40:	da400705 	stb	r9,28(sp)
 4022e44:	e2400045 	stb	r9,1(fp)
	for(i = 0; i < 16; i++) {
		int x, y;

		x = i & 0x03;
		y = i >> 2;
		ctx->state[x][y] = ctx->state[x][y] ^
 4022e48:	5014d63a 	srli	r10,r10,24
{
	int i;

	// copy input to state
	for(i = 0; i < 16; i++)
		ctx->state[i & 0x03][i >> 2] = input[i];
 4022e4c:	2b800143 	ldbu	r14,5(r5)
	for(i = 0; i < 16; i++) {
		int x, y;

		x = i & 0x03;
		y = i >> 2;
		ctx->state[x][y] = ctx->state[x][y] ^
 4022e50:	5094f03a 	xor	r10,r10,r2
{
	int i;

	// copy input to state
	for(i = 0; i < 16; i++)
		ctx->state[i & 0x03][i >> 2] = input[i];
 4022e54:	db800805 	stb	r14,32(sp)
	for(i = 0; i < 16; i++) {
		int x, y;

		x = i & 0x03;
		y = i >> 2;
		ctx->state[x][y] = ctx->state[x][y] ^
 4022e58:	da801415 	stw	r10,80(sp)
{
	int i;

	// copy input to state
	for(i = 0; i < 16; i++)
		ctx->state[i & 0x03][i >> 2] = input[i];
 4022e5c:	e3800145 	stb	r14,5(fp)
 4022e60:	28800183 	ldbu	r2,6(r5)
			((ctx->keysched[round*4+y] & (0xff << (x*8))) >> (x*8));
	}
}

void aes_encrypt(aes_ctx_t *ctx, unsigned char input[16], unsigned char output[16])
{
 4022e64:	d9800615 	stw	r6,24(sp)
	int i;

	// copy input to state
	for(i = 0; i < 16; i++)
		ctx->state[i & 0x03][i >> 2] = input[i];
 4022e68:	d8800905 	stb	r2,36(sp)
 4022e6c:	e0800245 	stb	r2,9(fp)
 4022e70:	290001c3 	ldbu	r4,7(r5)
 4022e74:	d9000a05 	stb	r4,40(sp)
 4022e78:	e1000345 	stb	r4,13(fp)
 4022e7c:	2a400203 	ldbu	r9,8(r5)
	for(i = 0; i < 16; i++) {
		int x, y;

		x = i & 0x03;
		y = i >> 2;
		ctx->state[x][y] = ctx->state[x][y] ^
 4022e80:	e2000917 	ldw	r8,36(fp)
	for(i = 0; i < 16; i++)
		ctx->state[i & 0x03][i >> 2] = input[i];

	aes_addroundkey(ctx, 0);

	for(i = 1; i < ctx->rounds; i++) {
 4022e84:	e4c00517 	ldw	r19,20(fp)
{
	int i;

	// copy input to state
	for(i = 0; i < 16; i++)
		ctx->state[i & 0x03][i >> 2] = input[i];
 4022e88:	da400b05 	stb	r9,44(sp)
 4022e8c:	e2400085 	stb	r9,2(fp)
 4022e90:	2a800243 	ldbu	r10,9(r5)
	for(i = 0; i < 16; i++) {
		int x, y;

		x = i & 0x03;
		y = i >> 2;
		ctx->state[x][y] = ctx->state[x][y] ^
 4022e94:	42c03fec 	andhi	r11,r8,255
 4022e98:	5816d43a 	srli	r11,r11,16
{
	int i;

	// copy input to state
	for(i = 0; i < 16; i++)
		ctx->state[i & 0x03][i >> 2] = input[i];
 4022e9c:	da800c05 	stb	r10,48(sp)
 4022ea0:	e2800185 	stb	r10,6(fp)
 4022ea4:	2b800283 	ldbu	r14,10(r5)
 4022ea8:	db800d05 	stb	r14,52(sp)
 4022eac:	e3800285 	stb	r14,10(fp)
 4022eb0:	288002c3 	ldbu	r2,11(r5)
	for(i = 0; i < 16; i++) {
		int x, y;

		x = i & 0x03;
		y = i >> 2;
		ctx->state[x][y] = ctx->state[x][y] ^
 4022eb4:	43bfc00c 	andi	r14,r8,65280
 4022eb8:	701cd23a 	srli	r14,r14,8
{
	int i;

	// copy input to state
	for(i = 0; i < 16; i++)
		ctx->state[i & 0x03][i >> 2] = input[i];
 4022ebc:	d8800e05 	stb	r2,56(sp)
 4022ec0:	e0800385 	stb	r2,14(fp)
 4022ec4:	29000303 	ldbu	r4,12(r5)
	for(i = 0; i < 16; i++) {
		int x, y;

		x = i & 0x03;
		y = i >> 2;
		ctx->state[x][y] = ctx->state[x][y] ^
 4022ec8:	e0800717 	ldw	r2,28(fp)
{
	int i;

	// copy input to state
	for(i = 0; i < 16; i++)
		ctx->state[i & 0x03][i >> 2] = input[i];
 4022ecc:	d9000f05 	stb	r4,60(sp)
 4022ed0:	e10000c5 	stb	r4,3(fp)
 4022ed4:	2a400343 	ldbu	r9,13(r5)
	for(i = 0; i < 16; i++) {
		int x, y;

		x = i & 0x03;
		y = i >> 2;
		ctx->state[x][y] = ctx->state[x][y] ^
 4022ed8:	113fc00c 	andi	r4,r2,65280
 4022edc:	1018d63a 	srli	r12,r2,24
{
	int i;

	// copy input to state
	for(i = 0; i < 16; i++)
		ctx->state[i & 0x03][i >> 2] = input[i];
 4022ee0:	da401005 	stb	r9,64(sp)
 4022ee4:	e24001c5 	stb	r9,7(fp)
 4022ee8:	2a800383 	ldbu	r10,14(r5)
	for(i = 0; i < 16; i++) {
		int x, y;

		x = i & 0x03;
		y = i >> 2;
		ctx->state[x][y] = ctx->state[x][y] ^
 4022eec:	2008d23a 	srli	r4,r4,8
{
	int i;

	// copy input to state
	for(i = 0; i < 16; i++)
		ctx->state[i & 0x03][i >> 2] = input[i];
 4022ef0:	da801105 	stb	r10,68(sp)
 4022ef4:	e28002c5 	stb	r10,11(fp)
 4022ef8:	294003c3 	ldbu	r5,15(r5)
 4022efc:	d9401205 	stb	r5,72(sp)
	for(i = 0; i < 16; i++) {
		int x, y;

		x = i & 0x03;
		y = i >> 2;
		ctx->state[x][y] = ctx->state[x][y] ^
 4022f00:	e1c00005 	stb	r7,0(fp)
 4022f04:	e0c00105 	stb	r3,4(fp)
 4022f08:	db801515 	stw	r14,84(sp)
 4022f0c:	401cd63a 	srli	r14,r8,24
 4022f10:	e0c00817 	ldw	r3,32(fp)
 4022f14:	11403fec 	andhi	r5,r2,255
 4022f18:	db801615 	stw	r14,88(sp)
 4022f1c:	da400803 	ldbu	r9,32(sp)
 4022f20:	da800903 	ldbu	r10,36(sp)
 4022f24:	db800a03 	ldbu	r14,40(sp)
 4022f28:	280ad43a 	srli	r5,r5,16
 4022f2c:	19bfc00c 	andi	r6,r3,65280
 4022f30:	19c03fec 	andhi	r7,r3,255
 4022f34:	181ad63a 	srli	r13,r3,24
 4022f38:	2248f03a 	xor	r4,r4,r9
 4022f3c:	2a8af03a 	xor	r5,r5,r10
 4022f40:	da400c03 	ldbu	r9,48(sp)
 4022f44:	da800d03 	ldbu	r10,52(sp)
 4022f48:	6398f03a 	xor	r12,r12,r14
 4022f4c:	300cd23a 	srli	r6,r6,8
 4022f50:	db800e03 	ldbu	r14,56(sp)
 4022f54:	380ed43a 	srli	r7,r7,16
 4022f58:	324cf03a 	xor	r6,r6,r9
 4022f5c:	6b9af03a 	xor	r13,r13,r14
 4022f60:	da401517 	ldw	r9,84(sp)
 4022f64:	db801103 	ldbu	r14,68(sp)
 4022f68:	3a8ef03a 	xor	r7,r7,r10
 4022f6c:	da801003 	ldbu	r10,64(sp)
 4022f70:	5b96f03a 	xor	r11,r11,r14
 4022f74:	db800703 	ldbu	r14,28(sp)
 4022f78:	4aa2f03a 	xor	r17,r9,r10
 4022f7c:	da401617 	ldw	r9,88(sp)
 4022f80:	da801203 	ldbu	r10,72(sp)
 4022f84:	1384f03a 	xor	r2,r2,r14
 4022f88:	db801317 	ldw	r14,76(sp)
 4022f8c:	4aa0f03a 	xor	r16,r9,r10
 4022f90:	da400b03 	ldbu	r9,44(sp)
 4022f94:	da800f03 	ldbu	r10,60(sp)
 4022f98:	e3800205 	stb	r14,8(fp)
 4022f9c:	1a46f03a 	xor	r3,r3,r9
 4022fa0:	da401417 	ldw	r9,80(sp)
 4022fa4:	4290f03a 	xor	r8,r8,r10
	for(i = 0; i < 16; i++)
		ctx->state[i & 0x03][i >> 2] = input[i];

	aes_addroundkey(ctx, 0);

	for(i = 1; i < ctx->rounds; i++) {
 4022fa8:	02800044 	movi	r10,1
	for(i = 0; i < 16; i++) {
		int x, y;

		x = i & 0x03;
		y = i >> 2;
		ctx->state[x][y] = ctx->state[x][y] ^
 4022fac:	e2400305 	stb	r9,12(fp)
 4022fb0:	e0800045 	stb	r2,1(fp)
 4022fb4:	e1000145 	stb	r4,5(fp)
 4022fb8:	e1400245 	stb	r5,9(fp)
 4022fbc:	e3000345 	stb	r12,13(fp)
 4022fc0:	e0c00085 	stb	r3,2(fp)
 4022fc4:	e1800185 	stb	r6,6(fp)
 4022fc8:	e1c00285 	stb	r7,10(fp)
 4022fcc:	e3400385 	stb	r13,14(fp)
 4022fd0:	e20000c5 	stb	r8,3(fp)
 4022fd4:	e44001c5 	stb	r17,7(fp)
 4022fd8:	e2c002c5 	stb	r11,11(fp)
 4022fdc:	e40003c5 	stb	r16,15(fp)
	for(i = 0; i < 16; i++)
		ctx->state[i & 0x03][i >> 2] = input[i];

	aes_addroundkey(ctx, 0);

	for(i = 1; i < ctx->rounds; i++) {
 4022fe0:	54c1ca2e 	bgeu	r10,r19,402370c <aes_encrypt+0x944>
 4022fe4:	da800515 	stw	r10,20(sp)
 4022fe8:	df000415 	stw	fp,16(sp)
 4022fec:	054100f4 	movhi	r21,1027
 4022ff0:	ad44b904 	addi	r21,r21,4836
 4022ff4:	e3c00d04 	addi	r15,fp,52
	for(i = 0; i < 16; i++) {
		int x, y;

		x = i & 0x03;
		y = i >> 2;
		ctx->state[x][y] = g_aes_sbox[ctx->state[x][y]];
 4022ff8:	e0800003 	ldbu	r2,0(fp)
 4022ffc:	e0c00103 	ldbu	r3,4(fp)
 4023000:	e1000203 	ldbu	r4,8(fp)
 4023004:	1545883a 	add	r2,r2,r21
 4023008:	11400003 	ldbu	r5,0(r2)
 402300c:	1d47883a 	add	r3,r3,r21
 4023010:	2549883a 	add	r4,r4,r21
 4023014:	e1400005 	stb	r5,0(fp)
 4023018:	1dc00003 	ldbu	r23,0(r3)
 402301c:	e0800303 	ldbu	r2,12(fp)
 4023020:	e1400043 	ldbu	r5,1(fp)
 4023024:	e5c00105 	stb	r23,4(fp)
 4023028:	27c00003 	ldbu	ra,0(r4)
 402302c:	1545883a 	add	r2,r2,r21
 4023030:	2d4b883a 	add	r5,r5,r21
 4023034:	e7c00205 	stb	ra,8(fp)
 4023038:	12400003 	ldbu	r9,0(r2)
 402303c:	e0c00143 	ldbu	r3,5(fp)
 4023040:	e1000243 	ldbu	r4,9(fp)
 4023044:	e2400305 	stb	r9,12(fp)
 4023048:	29400003 	ldbu	r5,0(r5)
 402304c:	1d47883a 	add	r3,r3,r21
 4023050:	2549883a 	add	r4,r4,r21
 4023054:	d9401705 	stb	r5,92(sp)
 4023058:	29403fcc 	andi	r5,r5,255
 402305c:	e1400045 	stb	r5,1(fp)
 4023060:	1b400003 	ldbu	r13,0(r3)
 4023064:	e0800343 	ldbu	r2,13(fp)
 4023068:	e1400083 	ldbu	r5,2(fp)
 402306c:	e3400145 	stb	r13,5(fp)
 4023070:	25000003 	ldbu	r20,0(r4)
 4023074:	1545883a 	add	r2,r2,r21
 4023078:	2d4b883a 	add	r5,r5,r21
 402307c:	e5000245 	stb	r20,9(fp)
 4023080:	15800003 	ldbu	r22,0(r2)
 4023084:	e0c00183 	ldbu	r3,6(fp)
 4023088:	e1800283 	ldbu	r6,10(fp)
 402308c:	e5800345 	stb	r22,13(fp)
 4023090:	2ac00003 	ldbu	r11,0(r5)
 4023094:	1d47883a 	add	r3,r3,r21
 4023098:	354d883a 	add	r6,r6,r21
 402309c:	e2c00085 	stb	r11,2(fp)
 40230a0:	18c00003 	ldbu	r3,0(r3)
	aes_addroundkey(ctx, 0);

	for(i = 1; i < ctx->rounds; i++) {
		aes_subbytes(ctx);
		aes_shiftrows(ctx);
		aes_mixcolumns(ctx);
 40230a4:	e009883a 	mov	r4,fp
	for(i = 0; i < 16; i++) {
		int x, y;

		x = i & 0x03;
		y = i >> 2;
		ctx->state[x][y] = g_aes_sbox[ctx->state[x][y]];
 40230a8:	d8c01745 	stb	r3,93(sp)
 40230ac:	e0800383 	ldbu	r2,14(fp)
 40230b0:	e0c00185 	stb	r3,6(fp)
	for(i = 0; i < 16; i++)
		ctx->state[i & 0x03][i >> 2] = input[i];

	aes_addroundkey(ctx, 0);

	for(i = 1; i < ctx->rounds; i++) {
 40230b4:	db800517 	ldw	r14,20(sp)
	for(i = 0; i < 16; i++) {
		int x, y;

		x = i & 0x03;
		y = i >> 2;
		ctx->state[x][y] = g_aes_sbox[ctx->state[x][y]];
 40230b8:	31800003 	ldbu	r6,0(r6)
 40230bc:	1545883a 	add	r2,r2,r21
	for(i = 0; i < 16; i++)
		ctx->state[i & 0x03][i >> 2] = input[i];

	aes_addroundkey(ctx, 0);

	for(i = 1; i < ctx->rounds; i++) {
 40230c0:	73800044 	addi	r14,r14,1
	for(i = 0; i < 16; i++) {
		int x, y;

		x = i & 0x03;
		y = i >> 2;
		ctx->state[x][y] = g_aes_sbox[ctx->state[x][y]];
 40230c4:	d9801785 	stb	r6,94(sp)
	for(i = 0; i < 16; i++)
		ctx->state[i & 0x03][i >> 2] = input[i];

	aes_addroundkey(ctx, 0);

	for(i = 1; i < ctx->rounds; i++) {
 40230c8:	db800515 	stw	r14,20(sp)
	for(i = 0; i < 16; i++) {
		int x, y;

		x = i & 0x03;
		y = i >> 2;
		ctx->state[x][y] = g_aes_sbox[ctx->state[x][y]];
 40230cc:	31803fcc 	andi	r6,r6,255
 40230d0:	e1800285 	stb	r6,10(fp)
 40230d4:	13000003 	ldbu	r12,0(r2)
 40230d8:	e08000c3 	ldbu	r2,3(fp)
 40230dc:	e0c001c3 	ldbu	r3,7(fp)
 40230e0:	e3000385 	stb	r12,14(fp)
 40230e4:	1545883a 	add	r2,r2,r21
 40230e8:	12000003 	ldbu	r8,0(r2)
 40230ec:	1d47883a 	add	r3,r3,r21
 40230f0:	e14002c3 	ldbu	r5,11(fp)
 40230f4:	e20000c5 	stb	r8,3(fp)
 40230f8:	19c00003 	ldbu	r7,0(r3)
	for(i = 0; i < 16; i++) {
		int x, y;

		x = i & 0x03;
		y = i >> 2;
		nstate[x][y] = ctx->state[x][(y+x) & 0x03];
 40230fc:	e0800003 	ldbu	r2,0(fp)
	for(i = 0; i < 16; i++) {
		int x, y;

		x = i & 0x03;
		y = i >> 2;
		ctx->state[x][y] = g_aes_sbox[ctx->state[x][y]];
 4023100:	e18003c3 	ldbu	r6,15(fp)
 4023104:	e1c001c5 	stb	r7,7(fp)
	for(i = 0; i < 16; i++) {
		int x, y;

		x = i & 0x03;
		y = i >> 2;
		nstate[x][y] = ctx->state[x][(y+x) & 0x03];
 4023108:	da801743 	ldbu	r10,93(sp)
 402310c:	d8800005 	stb	r2,0(sp)
	for(i = 0; i < 16; i++) {
		int x, y;

		x = i & 0x03;
		y = i >> 2;
		ctx->state[x][y] = g_aes_sbox[ctx->state[x][y]];
 4023110:	2d4b883a 	add	r5,r5,r21
	for(i = 0; i < 16; i++) {
		int x, y;

		x = i & 0x03;
		y = i >> 2;
		nstate[x][y] = ctx->state[x][(y+x) & 0x03];
 4023114:	d8801703 	ldbu	r2,92(sp)
	for(i = 0; i < 16; i++) {
		int x, y;

		x = i & 0x03;
		y = i >> 2;
		ctx->state[x][y] = g_aes_sbox[ctx->state[x][y]];
 4023118:	28c00003 	ldbu	r3,0(r5)
	for(i = 0; i < 16; i++) {
		int x, y;

		x = i & 0x03;
		y = i >> 2;
		nstate[x][y] = ctx->state[x][(y+x) & 0x03];
 402311c:	db400105 	stb	r13,4(sp)
 4023120:	da800145 	stb	r10,5(sp)
 4023124:	d9c00185 	stb	r7,6(sp)
 4023128:	dac00085 	stb	r11,2(sp)
 402312c:	da0000c5 	stb	r8,3(sp)
 4023130:	ddc001c5 	stb	r23,7(sp)
 4023134:	d8800045 	stb	r2,1(sp)
	for(i = 0; i < 16; i++) {
		int x, y;

		x = i & 0x03;
		y = i >> 2;
		ctx->state[x][y] = g_aes_sbox[ctx->state[x][y]];
 4023138:	e0c002c5 	stb	r3,11(fp)
	for(i = 0; i < 16; i++) {
		int x, y;

		x = i & 0x03;
		y = i >> 2;
		nstate[x][y] = ctx->state[x][(y+x) & 0x03];
 402313c:	db801783 	ldbu	r14,94(sp)
	for(i = 0; i < 16; i++) {
		int x, y;

		x = i & 0x03;
		y = i >> 2;
		ctx->state[x][y] = g_aes_sbox[ctx->state[x][y]];
 4023140:	354d883a 	add	r6,r6,r21
	for(i = 0; i < 16; i++) {
		int x, y;

		x = i & 0x03;
		y = i >> 2;
		nstate[x][y] = ctx->state[x][(y+x) & 0x03];
 4023144:	d8c00245 	stb	r3,9(sp)
	for(i = 0; i < 16; i++) {
		int x, y;

		x = i & 0x03;
		y = i >> 2;
		ctx->state[x][y] = g_aes_sbox[ctx->state[x][y]];
 4023148:	30c00003 	ldbu	r3,0(r6)
	for(i = 0; i < 16; i++) {
		int x, y;

		x = i & 0x03;
		y = i >> 2;
		nstate[x][y] = ctx->state[x][(y+x) & 0x03];
 402314c:	db800205 	stb	r14,8(sp)
 4023150:	dfc00285 	stb	ra,10(sp)
 4023154:	dd0002c5 	stb	r20,11(sp)
	}

	memcpy(ctx->state, nstate, sizeof(ctx->state));
 4023158:	d9400117 	ldw	r5,4(sp)
 402315c:	d9800217 	ldw	r6,8(sp)
	for(i = 0; i < 16; i++) {
		int x, y;

		x = i & 0x03;
		y = i >> 2;
		nstate[x][y] = ctx->state[x][(y+x) & 0x03];
 4023160:	d8c00305 	stb	r3,12(sp)
	}

	memcpy(ctx->state, nstate, sizeof(ctx->state));
 4023164:	d8800017 	ldw	r2,0(sp)
	for(i = 0; i < 16; i++) {
		int x, y;

		x = i & 0x03;
		y = i >> 2;
		nstate[x][y] = ctx->state[x][(y+x) & 0x03];
 4023168:	da400345 	stb	r9,13(sp)
 402316c:	dd800385 	stb	r22,14(sp)
 4023170:	db0003c5 	stb	r12,15(sp)
	for(i = 0; i < 16; i++) {
		int x, y;

		x = i & 0x03;
		y = i >> 2;
		ctx->state[x][y] = g_aes_sbox[ctx->state[x][y]];
 4023174:	e0c003c5 	stb	r3,15(fp)
		x = i & 0x03;
		y = i >> 2;
		nstate[x][y] = ctx->state[x][(y+x) & 0x03];
	}

	memcpy(ctx->state, nstate, sizeof(ctx->state));
 4023178:	e1400115 	stw	r5,4(fp)
 402317c:	e1800215 	stw	r6,8(fp)
 4023180:	e0800015 	stw	r2,0(fp)
 4023184:	d8800317 	ldw	r2,12(sp)
 4023188:	e0800315 	stw	r2,12(fp)
	aes_addroundkey(ctx, 0);

	for(i = 1; i < ctx->rounds; i++) {
		aes_subbytes(ctx);
		aes_shiftrows(ctx);
		aes_mixcolumns(ctx);
 402318c:	dbc02815 	stw	r15,160(sp)
 4023190:	4021c080 	call	4021c08 <aes_mixcolumns>
	for(i = 0; i < 16; i++) {
		int x, y;

		x = i & 0x03;
		y = i >> 2;
		ctx->state[x][y] = ctx->state[x][y] ^
 4023194:	dbc02817 	ldw	r15,160(sp)
 4023198:	db800417 	ldw	r14,16(sp)
 402319c:	78ffff17 	ldw	r3,-4(r15)
 40231a0:	73800a03 	ldbu	r14,40(r14)
 40231a4:	79bffe17 	ldw	r6,-8(r15)
 40231a8:	19003fec 	andhi	r4,r3,255
 40231ac:	2012d43a 	srli	r9,r4,16
 40231b0:	1814d63a 	srli	r10,r3,24
 40231b4:	db801815 	stw	r14,96(sp)
 40231b8:	da401d15 	stw	r9,116(sp)
 40231bc:	da801f15 	stw	r10,124(sp)
 40231c0:	e3800003 	ldbu	r14,0(fp)
 40231c4:	da401817 	ldw	r9,96(sp)
 40231c8:	e5000343 	ldbu	r20,13(fp)
 40231cc:	302ed63a 	srli	r23,r6,24
 40231d0:	4b9cf03a 	xor	r14,r9,r14
 40231d4:	e4800103 	ldbu	r18,4(fp)
 40231d8:	e4400203 	ldbu	r17,8(fp)
 40231dc:	e4000303 	ldbu	r16,12(fp)
 40231e0:	e5800243 	ldbu	r22,9(fp)
 40231e4:	e2800083 	ldbu	r10,2(fp)
 40231e8:	e10000c3 	ldbu	r4,3(fp)
 40231ec:	bd2ef03a 	xor	r23,r23,r20
 40231f0:	db801915 	stw	r14,100(sp)
 40231f4:	e3800143 	ldbu	r14,5(fp)
 40231f8:	333fc00c 	andi	r12,r6,65280
 40231fc:	ddc01a15 	stw	r23,104(sp)
 4023200:	1b7fc00c 	andi	r13,r3,65280
 4023204:	e2400183 	ldbu	r9,6(fp)
 4023208:	6018d23a 	srli	r12,r12,8
 402320c:	681ad23a 	srli	r13,r13,8
 4023210:	78bffd17 	ldw	r2,-12(r15)
 4023214:	6398f03a 	xor	r12,r12,r14
 4023218:	6a5af03a 	xor	r13,r13,r9
 402321c:	db801d17 	ldw	r14,116(sp)
 4023220:	e2400283 	ldbu	r9,10(fp)
 4023224:	11c03fec 	andhi	r7,r2,255
 4023228:	32c03fec 	andhi	r11,r6,255
 402322c:	725cf03a 	xor	r14,r14,r9
 4023230:	db801e15 	stw	r14,120(sp)
 4023234:	e2400383 	ldbu	r9,14(fp)
 4023238:	db801f17 	ldw	r14,124(sp)
 402323c:	7a3ffd43 	ldbu	r8,-11(r15)
 4023240:	380ed43a 	srli	r7,r7,16
 4023244:	725cf03a 	xor	r14,r14,r9
 4023248:	7a7fff17 	ldw	r9,-4(r15)
 402324c:	db802015 	stw	r14,128(sp)
 4023250:	e3800043 	ldbu	r14,1(fp)
 4023254:	4a94f03a 	xor	r10,r9,r10
 4023258:	1004d63a 	srli	r2,r2,24
 402325c:	5816d43a 	srli	r11,r11,16
 4023260:	da801b15 	stw	r10,108(sp)
 4023264:	da801917 	ldw	r10,100(sp)
 4023268:	1404f03a 	xor	r2,r2,r16
 402326c:	338cf03a 	xor	r6,r6,r14
 4023270:	4490f03a 	xor	r8,r8,r18
 4023274:	3c4ef03a 	xor	r7,r7,r17
 4023278:	5d96f03a 	xor	r11,r11,r22
 402327c:	79400017 	ldw	r5,0(r15)
 4023280:	e2800005 	stb	r10,0(fp)
 4023284:	e2000105 	stb	r8,4(fp)
 4023288:	e1c00205 	stb	r7,8(fp)
 402328c:	e0800305 	stb	r2,12(fp)
 4023290:	e1800045 	stb	r6,1(fp)
 4023294:	e3000145 	stb	r12,5(fp)
 4023298:	e2c00245 	stb	r11,9(fp)
 402329c:	db801a17 	ldw	r14,104(sp)
 40232a0:	28ffc00c 	andi	r3,r5,65280
 40232a4:	1806d23a 	srli	r3,r3,8
 40232a8:	e3800345 	stb	r14,13(fp)
 40232ac:	d8801b17 	ldw	r2,108(sp)
 40232b0:	e3400185 	stb	r13,6(fp)
 40232b4:	e38001c3 	ldbu	r14,7(fp)
 40232b8:	e0800085 	stb	r2,2(fp)
 40232bc:	da401e17 	ldw	r9,120(sp)
 40232c0:	2908f03a 	xor	r4,r5,r4
 40232c4:	1b86f03a 	xor	r3,r3,r14
 40232c8:	e2400285 	stb	r9,10(fp)
 40232cc:	28803fec 	andhi	r2,r5,255
 40232d0:	da802017 	ldw	r10,128(sp)
 40232d4:	1004d43a 	srli	r2,r2,16
 40232d8:	e10000c5 	stb	r4,3(fp)
 40232dc:	e0c001c5 	stb	r3,7(fp)
 40232e0:	e10003c3 	ldbu	r4,15(fp)
 40232e4:	e0c002c3 	ldbu	r3,11(fp)
 40232e8:	280ad63a 	srli	r5,r5,24
 40232ec:	e2800385 	stb	r10,14(fp)
 40232f0:	10c4f03a 	xor	r2,r2,r3
 40232f4:	290af03a 	xor	r5,r5,r4
 40232f8:	e08002c5 	stb	r2,11(fp)
 40232fc:	e14003c5 	stb	r5,15(fp)
	for(i = 0; i < 16; i++)
		ctx->state[i & 0x03][i >> 2] = input[i];

	aes_addroundkey(ctx, 0);

	for(i = 1; i < ctx->rounds; i++) {
 4023300:	d8800417 	ldw	r2,16(sp)
 4023304:	e4c00517 	ldw	r19,20(fp)
 4023308:	d8c00517 	ldw	r3,20(sp)
 402330c:	10800404 	addi	r2,r2,16
 4023310:	d8800415 	stw	r2,16(sp)
 4023314:	7bc00404 	addi	r15,r15,16
 4023318:	1cff3736 	bltu	r3,r19,4022ff8 <aes_encrypt+0x230>
	for(i = 0; i < 16; i++) {
		int x, y;

		x = i & 0x03;
		y = i >> 2;
		ctx->state[x][y] = g_aes_sbox[ctx->state[x][y]];
 402331c:	e0800003 	ldbu	r2,0(fp)
 4023320:	e0c00103 	ldbu	r3,4(fp)
 4023324:	e1000203 	ldbu	r4,8(fp)
 4023328:	1545883a 	add	r2,r2,r21
 402332c:	11400003 	ldbu	r5,0(r2)
 4023330:	1d47883a 	add	r3,r3,r21
 4023334:	2549883a 	add	r4,r4,r21
 4023338:	e1400005 	stb	r5,0(fp)
 402333c:	18c00003 	ldbu	r3,0(r3)
 4023340:	d8c02105 	stb	r3,132(sp)
 4023344:	e0c00105 	stb	r3,4(fp)
 4023348:	21000003 	ldbu	r4,0(r4)
 402334c:	e0800303 	ldbu	r2,12(fp)
 4023350:	e1400043 	ldbu	r5,1(fp)
 4023354:	d9002145 	stb	r4,133(sp)
 4023358:	e1000205 	stb	r4,8(fp)
 402335c:	1545883a 	add	r2,r2,r21
 4023360:	10800003 	ldbu	r2,0(r2)
 4023364:	2d4b883a 	add	r5,r5,r21
 4023368:	d8802185 	stb	r2,134(sp)
 402336c:	e0800305 	stb	r2,12(fp)
 4023370:	29400003 	ldbu	r5,0(r5)
 4023374:	e0c00143 	ldbu	r3,5(fp)
 4023378:	e1000243 	ldbu	r4,9(fp)
 402337c:	d94021c5 	stb	r5,135(sp)
 4023380:	29403fcc 	andi	r5,r5,255
 4023384:	e1400045 	stb	r5,1(fp)
 4023388:	1d47883a 	add	r3,r3,r21
 402338c:	18c00003 	ldbu	r3,0(r3)
 4023390:	2549883a 	add	r4,r4,r21
 4023394:	d8c02205 	stb	r3,136(sp)
 4023398:	e0c00145 	stb	r3,5(fp)
 402339c:	21000003 	ldbu	r4,0(r4)
 40233a0:	e0800343 	ldbu	r2,13(fp)
 40233a4:	e1400083 	ldbu	r5,2(fp)
 40233a8:	d9002245 	stb	r4,137(sp)
 40233ac:	e1000245 	stb	r4,9(fp)
 40233b0:	1545883a 	add	r2,r2,r21
 40233b4:	10800003 	ldbu	r2,0(r2)
 40233b8:	2d4b883a 	add	r5,r5,r21
		x = i & 0x03;
		y = i >> 2;
		nstate[x][y] = ctx->state[x][(y+x) & 0x03];
	}

	memcpy(ctx->state, nstate, sizeof(ctx->state));
 40233bc:	9cc9883a 	add	r4,r19,r19
	for(i = 0; i < 16; i++) {
		int x, y;

		x = i & 0x03;
		y = i >> 2;
		ctx->state[x][y] = g_aes_sbox[ctx->state[x][y]];
 40233c0:	d8802285 	stb	r2,138(sp)
 40233c4:	e0c00183 	ldbu	r3,6(fp)
 40233c8:	e1800283 	ldbu	r6,10(fp)
 40233cc:	e0800345 	stb	r2,13(fp)
 40233d0:	2b400003 	ldbu	r13,0(r5)
 40233d4:	1d47883a 	add	r3,r3,r21
 40233d8:	354d883a 	add	r6,r6,r21
 40233dc:	e3400085 	stb	r13,2(fp)
 40233e0:	1ac00003 	ldbu	r11,0(r3)
 40233e4:	e0800383 	ldbu	r2,14(fp)
		x = i & 0x03;
		y = i >> 2;
		nstate[x][y] = ctx->state[x][(y+x) & 0x03];
	}

	memcpy(ctx->state, nstate, sizeof(ctx->state));
 40233e8:	2109883a 	add	r4,r4,r4
	for(i = 0; i < 16; i++) {
		int x, y;

		x = i & 0x03;
		y = i >> 2;
		ctx->state[x][y] = g_aes_sbox[ctx->state[x][y]];
 40233ec:	e2c00185 	stb	r11,6(fp)
 40233f0:	33000003 	ldbu	r12,0(r6)
 40233f4:	1545883a 	add	r2,r2,r21
	for(i = 0; i < 16; i++) {
		int x, y;

		x = i & 0x03;
		y = i >> 2;
		ctx->state[x][y] = ctx->state[x][y] ^
 40233f8:	21800044 	addi	r6,r4,1
	for(i = 0; i < 16; i++) {
		int x, y;

		x = i & 0x03;
		y = i >> 2;
		ctx->state[x][y] = g_aes_sbox[ctx->state[x][y]];
 40233fc:	e3000285 	stb	r12,10(fp)
 4023400:	10800003 	ldbu	r2,0(r2)
	for(i = 0; i < 16; i++) {
		int x, y;

		x = i & 0x03;
		y = i >> 2;
		ctx->state[x][y] = ctx->state[x][y] ^
 4023404:	21c00084 	addi	r7,r4,2
 4023408:	318d883a 	add	r6,r6,r6
	for(i = 0; i < 16; i++) {
		int x, y;

		x = i & 0x03;
		y = i >> 2;
		ctx->state[x][y] = g_aes_sbox[ctx->state[x][y]];
 402340c:	d88022c5 	stb	r2,139(sp)
 4023410:	e0800385 	stb	r2,14(fp)
 4023414:	e08000c3 	ldbu	r2,3(fp)
 4023418:	e0c001c3 	ldbu	r3,7(fp)
 402341c:	e14002c3 	ldbu	r5,11(fp)
 4023420:	1545883a 	add	r2,r2,r21
 4023424:	15c00003 	ldbu	r23,0(r2)
 4023428:	1d47883a 	add	r3,r3,r21
	for(i = 0; i < 16; i++) {
		int x, y;

		x = i & 0x03;
		y = i >> 2;
		nstate[x][y] = ctx->state[x][(y+x) & 0x03];
 402342c:	e0800003 	ldbu	r2,0(fp)
	for(i = 0; i < 16; i++) {
		int x, y;

		x = i & 0x03;
		y = i >> 2;
		ctx->state[x][y] = g_aes_sbox[ctx->state[x][y]];
 4023430:	e5c000c5 	stb	r23,3(fp)
 4023434:	1d800003 	ldbu	r22,0(r3)
 4023438:	2d4b883a 	add	r5,r5,r21
 402343c:	e20003c3 	ldbu	r8,15(fp)
 4023440:	e58001c5 	stb	r22,7(fp)
	for(i = 0; i < 16; i++) {
		int x, y;

		x = i & 0x03;
		y = i >> 2;
		nstate[x][y] = ctx->state[x][(y+x) & 0x03];
 4023444:	da402203 	ldbu	r9,136(sp)
 4023448:	da8021c3 	ldbu	r10,135(sp)
 402344c:	db802103 	ldbu	r14,132(sp)
	for(i = 0; i < 16; i++) {
		int x, y;

		x = i & 0x03;
		y = i >> 2;
		ctx->state[x][y] = g_aes_sbox[ctx->state[x][y]];
 4023450:	28c00003 	ldbu	r3,0(r5)
	for(i = 0; i < 16; i++) {
		int x, y;

		x = i & 0x03;
		y = i >> 2;
		nstate[x][y] = ctx->state[x][(y+x) & 0x03];
 4023454:	d8800005 	stb	r2,0(sp)
 4023458:	da400105 	stb	r9,4(sp)
 402345c:	da800045 	stb	r10,1(sp)
 4023460:	dac00145 	stb	r11,5(sp)
 4023464:	db400085 	stb	r13,2(sp)
 4023468:	dd800185 	stb	r22,6(sp)
 402346c:	ddc000c5 	stb	r23,3(sp)
 4023470:	db8001c5 	stb	r14,7(sp)
	for(i = 0; i < 16; i++) {
		int x, y;

		x = i & 0x03;
		y = i >> 2;
		ctx->state[x][y] = g_aes_sbox[ctx->state[x][y]];
 4023474:	e0c002c5 	stb	r3,11(fp)
	for(i = 0; i < 16; i++) {
		int x, y;

		x = i & 0x03;
		y = i >> 2;
		nstate[x][y] = ctx->state[x][(y+x) & 0x03];
 4023478:	db000205 	stb	r12,8(sp)
 402347c:	d8c00245 	stb	r3,9(sp)
 4023480:	d8802143 	ldbu	r2,133(sp)
 4023484:	d8c02243 	ldbu	r3,137(sp)
	for(i = 0; i < 16; i++) {
		int x, y;

		x = i & 0x03;
		y = i >> 2;
		ctx->state[x][y] = g_aes_sbox[ctx->state[x][y]];
 4023488:	4551883a 	add	r8,r8,r21
	for(i = 0; i < 16; i++) {
		int x, y;

		x = i & 0x03;
		y = i >> 2;
		nstate[x][y] = ctx->state[x][(y+x) & 0x03];
 402348c:	d8800285 	stb	r2,10(sp)
 4023490:	d88022c3 	ldbu	r2,139(sp)
 4023494:	d8c002c5 	stb	r3,11(sp)
	for(i = 0; i < 16; i++) {
		int x, y;

		x = i & 0x03;
		y = i >> 2;
		ctx->state[x][y] = g_aes_sbox[ctx->state[x][y]];
 4023498:	41400003 	ldbu	r5,0(r8)
	for(i = 0; i < 16; i++) {
		int x, y;

		x = i & 0x03;
		y = i >> 2;
		nstate[x][y] = ctx->state[x][(y+x) & 0x03];
 402349c:	da402183 	ldbu	r9,134(sp)
 40234a0:	db802283 	ldbu	r14,138(sp)
 40234a4:	d88003c5 	stb	r2,15(sp)
	}

	memcpy(ctx->state, nstate, sizeof(ctx->state));
 40234a8:	da800117 	ldw	r10,4(sp)
 40234ac:	da000217 	ldw	r8,8(sp)
 40234b0:	d8800017 	ldw	r2,0(sp)
	for(i = 0; i < 16; i++) {
		int x, y;

		x = i & 0x03;
		y = i >> 2;
		nstate[x][y] = ctx->state[x][(y+x) & 0x03];
 40234b4:	da400345 	stb	r9,13(sp)
 40234b8:	db800385 	stb	r14,14(sp)
 40234bc:	d9400305 	stb	r5,12(sp)
	for(i = 0; i < 16; i++) {
		int x, y;

		x = i & 0x03;
		y = i >> 2;
		ctx->state[x][y] = ctx->state[x][y] ^
 40234c0:	20c000c4 	addi	r3,r4,3
 40234c4:	39cf883a 	add	r7,r7,r7
 40234c8:	2109883a 	add	r4,r4,r4
 40234cc:	318d883a 	add	r6,r6,r6
		x = i & 0x03;
		y = i >> 2;
		nstate[x][y] = ctx->state[x][(y+x) & 0x03];
	}

	memcpy(ctx->state, nstate, sizeof(ctx->state));
 40234d0:	e0800015 	stw	r2,0(fp)
 40234d4:	e2800115 	stw	r10,4(fp)
 40234d8:	e2000215 	stw	r8,8(fp)
	for(i = 0; i < 16; i++) {
		int x, y;

		x = i & 0x03;
		y = i >> 2;
		ctx->state[x][y] = g_aes_sbox[ctx->state[x][y]];
 40234dc:	e14003c5 	stb	r5,15(fp)
	for(i = 0; i < 16; i++) {
		int x, y;

		x = i & 0x03;
		y = i >> 2;
		ctx->state[x][y] = ctx->state[x][y] ^
 40234e0:	370d883a 	add	r6,r6,fp
 40234e4:	2109883a 	add	r4,r4,r4
 40234e8:	39cf883a 	add	r7,r7,r7
 40234ec:	32000617 	ldw	r8,24(r6)
		x = i & 0x03;
		y = i >> 2;
		nstate[x][y] = ctx->state[x][(y+x) & 0x03];
	}

	memcpy(ctx->state, nstate, sizeof(ctx->state));
 40234f0:	d8800317 	ldw	r2,12(sp)
	for(i = 0; i < 16; i++) {
		int x, y;

		x = i & 0x03;
		y = i >> 2;
		ctx->state[x][y] = ctx->state[x][y] ^
 40234f4:	2709883a 	add	r4,r4,fp
 40234f8:	3f0f883a 	add	r7,r7,fp
 40234fc:	18c7883a 	add	r3,r3,r3
 4023500:	3ac00617 	ldw	r11,24(r7)
 4023504:	21400617 	ldw	r5,24(r4)
 4023508:	18c7883a 	add	r3,r3,r3
 402350c:	1f07883a 	add	r3,r3,fp
		x = i & 0x03;
		y = i >> 2;
		nstate[x][y] = ctx->state[x][(y+x) & 0x03];
	}

	memcpy(ctx->state, nstate, sizeof(ctx->state));
 4023510:	e0800315 	stw	r2,12(fp)
	for(i = 0; i < 16; i++) {
		int x, y;

		x = i & 0x03;
		y = i >> 2;
		ctx->state[x][y] = ctx->state[x][y] ^
 4023514:	19800617 	ldw	r6,24(r3)
 4023518:	40bfc00c 	andi	r2,r8,65280
 402351c:	40c03fec 	andhi	r3,r8,255
 4023520:	2812d63a 	srli	r9,r5,24
 4023524:	4014d63a 	srli	r10,r8,24
 4023528:	581cd63a 	srli	r14,r11,24
 402352c:	1004d23a 	srli	r2,r2,8
 4023530:	1806d43a 	srli	r3,r3,16
 4023534:	da402315 	stw	r9,140(sp)
 4023538:	d8802415 	stw	r2,144(sp)
 402353c:	d8c02515 	stw	r3,148(sp)
 4023540:	da802615 	stw	r10,152(sp)
 4023544:	db802715 	stw	r14,156(sp)
 4023548:	29ffc00c 	andi	r7,r5,65280
 402354c:	e2400003 	ldbu	r9,0(fp)
 4023550:	e2800103 	ldbu	r10,4(fp)
 4023554:	380ed23a 	srli	r7,r7,8
 4023558:	29003fec 	andhi	r4,r5,255
 402355c:	29403fcc 	andi	r5,r5,255
 4023560:	2a4af03a 	xor	r5,r5,r9
 4023564:	e3800203 	ldbu	r14,8(fp)
 4023568:	da402317 	ldw	r9,140(sp)
 402356c:	3a8ef03a 	xor	r7,r7,r10
 4023570:	2008d43a 	srli	r4,r4,16
 4023574:	e2800303 	ldbu	r10,12(fp)
 4023578:	5b3fc00c 	andi	r12,r11,65280
 402357c:	2388f03a 	xor	r4,r4,r14
 4023580:	4aaef03a 	xor	r23,r9,r10
 4023584:	db802417 	ldw	r14,144(sp)
 4023588:	e2400143 	ldbu	r9,5(fp)
 402358c:	da802517 	ldw	r10,148(sp)
 4023590:	6018d23a 	srli	r12,r12,8
 4023594:	7268f03a 	xor	r20,r14,r9
 4023598:	e3800243 	ldbu	r14,9(fp)
 402359c:	da402617 	ldw	r9,152(sp)
 40235a0:	5b403fec 	andhi	r13,r11,255
 40235a4:	53aaf03a 	xor	r21,r10,r14
 40235a8:	e2800343 	ldbu	r10,13(fp)
 40235ac:	e3800183 	ldbu	r14,6(fp)
 40235b0:	681ad43a 	srli	r13,r13,16
 40235b4:	4aacf03a 	xor	r22,r9,r10
 40235b8:	6398f03a 	xor	r12,r12,r14
 40235bc:	e2400283 	ldbu	r9,10(fp)
 40235c0:	da802717 	ldw	r10,156(sp)
 40235c4:	e3800383 	ldbu	r14,14(fp)
 40235c8:	e08000c3 	ldbu	r2,3(fp)
 40235cc:	30ffc00c 	andi	r3,r6,65280
 40235d0:	53a2f03a 	xor	r17,r10,r14
 40235d4:	6a5af03a 	xor	r13,r13,r9
 40235d8:	e2800083 	ldbu	r10,2(fp)
 40235dc:	e2400043 	ldbu	r9,1(fp)
 40235e0:	1806d23a 	srli	r3,r3,8
 40235e4:	e1c00105 	stb	r7,4(fp)
 40235e8:	e38001c3 	ldbu	r14,7(fp)
 40235ec:	3084f03a 	xor	r2,r6,r2
 40235f0:	e08000c5 	stb	r2,3(fp)
 40235f4:	1b86f03a 	xor	r3,r3,r14
 40235f8:	30803fec 	andhi	r2,r6,255
 40235fc:	e1000205 	stb	r4,8(fp)
 4023600:	e0c001c5 	stb	r3,7(fp)
 4023604:	e10003c3 	ldbu	r4,15(fp)
 4023608:	e0c002c3 	ldbu	r3,11(fp)
 402360c:	1004d43a 	srli	r2,r2,16
 4023610:	300cd63a 	srli	r6,r6,24
 4023614:	4250f03a 	xor	r8,r8,r9
 4023618:	10c4f03a 	xor	r2,r2,r3
 402361c:	310cf03a 	xor	r6,r6,r4
 4023620:	5a96f03a 	xor	r11,r11,r10
 4023624:	e5c00305 	stb	r23,12(fp)
 4023628:	e2000045 	stb	r8,1(fp)
 402362c:	e5000145 	stb	r20,5(fp)
 4023630:	e5400245 	stb	r21,9(fp)
 4023634:	e5800345 	stb	r22,13(fp)
 4023638:	e2c00085 	stb	r11,2(fp)
 402363c:	e3000185 	stb	r12,6(fp)
 4023640:	e3400285 	stb	r13,10(fp)
 4023644:	e4400385 	stb	r17,14(fp)
 4023648:	e1400005 	stb	r5,0(fp)
 402364c:	e08002c5 	stb	r2,11(fp)
 4023650:	e18003c5 	stb	r6,15(fp)
	aes_shiftrows(ctx);
	aes_addroundkey(ctx, ctx->rounds);

	// copy state to output
	for(i = 0; i < 16; i++)
		output[i] = ctx->state[i & 0x03][i >> 2];
 4023654:	d8800617 	ldw	r2,24(sp)
 4023658:	11400005 	stb	r5,0(r2)
 402365c:	e0800103 	ldbu	r2,4(fp)
 4023660:	d8c00617 	ldw	r3,24(sp)
 4023664:	18800045 	stb	r2,1(r3)
 4023668:	d9000617 	ldw	r4,24(sp)
 402366c:	e0c00203 	ldbu	r3,8(fp)
 4023670:	20c00085 	stb	r3,2(r4)
 4023674:	e0800303 	ldbu	r2,12(fp)
 4023678:	208000c5 	stb	r2,3(r4)
 402367c:	e0c00043 	ldbu	r3,1(fp)
 4023680:	20c00105 	stb	r3,4(r4)
 4023684:	e0800143 	ldbu	r2,5(fp)
 4023688:	20800145 	stb	r2,5(r4)
 402368c:	e0c00243 	ldbu	r3,9(fp)
 4023690:	20c00185 	stb	r3,6(r4)
 4023694:	e0800343 	ldbu	r2,13(fp)
 4023698:	208001c5 	stb	r2,7(r4)
 402369c:	e0c00083 	ldbu	r3,2(fp)
 40236a0:	20c00205 	stb	r3,8(r4)
 40236a4:	e0800183 	ldbu	r2,6(fp)
 40236a8:	20800245 	stb	r2,9(r4)
 40236ac:	e0c00283 	ldbu	r3,10(fp)
 40236b0:	20c00285 	stb	r3,10(r4)
 40236b4:	e0800383 	ldbu	r2,14(fp)
 40236b8:	208002c5 	stb	r2,11(r4)
 40236bc:	e0c000c3 	ldbu	r3,3(fp)
 40236c0:	20c00305 	stb	r3,12(r4)
 40236c4:	e08001c3 	ldbu	r2,7(fp)
 40236c8:	20800345 	stb	r2,13(r4)
 40236cc:	e0c002c3 	ldbu	r3,11(fp)
 40236d0:	20c00385 	stb	r3,14(r4)
 40236d4:	e08003c3 	ldbu	r2,15(fp)
 40236d8:	208003c5 	stb	r2,15(r4)
}
 40236dc:	dfc03217 	ldw	ra,200(sp)
 40236e0:	df003117 	ldw	fp,196(sp)
 40236e4:	ddc03017 	ldw	r23,192(sp)
 40236e8:	dd802f17 	ldw	r22,188(sp)
 40236ec:	dd402e17 	ldw	r21,184(sp)
 40236f0:	dd002d17 	ldw	r20,180(sp)
 40236f4:	dcc02c17 	ldw	r19,176(sp)
 40236f8:	dc802b17 	ldw	r18,172(sp)
 40236fc:	dc402a17 	ldw	r17,168(sp)
 4023700:	dc002917 	ldw	r16,164(sp)
 4023704:	dec03304 	addi	sp,sp,204
 4023708:	f800283a 	ret
 402370c:	054100f4 	movhi	r21,1027
 4023710:	ad44b904 	addi	r21,r21,4836
 4023714:	003f0106 	br	402331c <aes_encrypt+0x554>

04023718 <aes_decrypt>:

	memcpy(ctx->state, nstate, sizeof(ctx->state));
}

void aes_decrypt(aes_ctx_t *ctx, unsigned char input[16], unsigned char output[16])
{
 4023718:	deffbc04 	addi	sp,sp,-272
 402371c:	df004215 	stw	fp,264(sp)
 4023720:	ddc04115 	stw	r23,260(sp)
 4023724:	dc403b15 	stw	r17,236(sp)
 4023728:	dc003a15 	stw	r16,232(sp)
 402372c:	dfc04315 	stw	ra,268(sp)
 4023730:	dd804015 	stw	r22,256(sp)
 4023734:	dd403f15 	stw	r21,252(sp)
 4023738:	dd003e15 	stw	r20,248(sp)
 402373c:	dcc03d15 	stw	r19,244(sp)
 4023740:	dc803c15 	stw	r18,240(sp)
	int i, j;

	// copy input to state
	for(i = 0; i < 16; i++)
		ctx->state[i & 0x03][i >> 2] = input[i];
 4023744:	29c00003 	ldbu	r7,0(r5)
 4023748:	23800517 	ldw	r14,20(r4)

	memcpy(ctx->state, nstate, sizeof(ctx->state));
}

void aes_decrypt(aes_ctx_t *ctx, unsigned char input[16], unsigned char output[16])
{
 402374c:	2039883a 	mov	fp,r4
	int i, j;

	// copy input to state
	for(i = 0; i < 16; i++)
		ctx->state[i & 0x03][i >> 2] = input[i];
 4023750:	21c00005 	stb	r7,0(r4)
 4023754:	2ac00043 	ldbu	r11,1(r5)
 4023758:	7385883a 	add	r2,r14,r14
 402375c:	1085883a 	add	r2,r2,r2
 4023760:	d8801215 	stw	r2,72(sp)
 4023764:	22c00105 	stb	r11,4(r4)
 4023768:	2a800083 	ldbu	r10,2(r5)
	for(i = 0; i < 16; i++) {
		int x, y;

		x = i & 0x03;
		y = i >> 2;
		ctx->state[x][y] = ctx->state[x][y] ^
 402376c:	d8c01217 	ldw	r3,72(sp)
	// copy input to state
	for(i = 0; i < 16; i++)
		ctx->state[i & 0x03][i >> 2] = input[i];

	aes_addroundkey(ctx, ctx->rounds);
	for(i = ctx->rounds-1; i >= 1; i--) {
 4023770:	73bfffc4 	addi	r14,r14,-1
{
	int i, j;

	// copy input to state
	for(i = 0; i < 16; i++)
		ctx->state[i & 0x03][i >> 2] = input[i];
 4023774:	22800205 	stb	r10,8(r4)
 4023778:	2a4000c3 	ldbu	r9,3(r5)
	for(i = 0; i < 16; i++) {
		int x, y;

		x = i & 0x03;
		y = i >> 2;
		ctx->state[x][y] = ctx->state[x][y] ^
 402377c:	18c5883a 	add	r2,r3,r3
 4023780:	1085883a 	add	r2,r2,r2
{
	int i, j;

	// copy input to state
	for(i = 0; i < 16; i++)
		ctx->state[i & 0x03][i >> 2] = input[i];
 4023784:	22400305 	stb	r9,12(r4)
	for(i = 0; i < 16; i++) {
		int x, y;

		x = i & 0x03;
		y = i >> 2;
		ctx->state[x][y] = ctx->state[x][y] ^
 4023788:	1105883a 	add	r2,r2,r4
{
	int i, j;

	// copy input to state
	for(i = 0; i < 16; i++)
		ctx->state[i & 0x03][i >> 2] = input[i];
 402378c:	29000103 	ldbu	r4,4(r5)
	for(i = 0; i < 16; i++) {
		int x, y;

		x = i & 0x03;
		y = i >> 2;
		ctx->state[x][y] = ctx->state[x][y] ^
 4023790:	da001217 	ldw	r8,72(sp)
 4023794:	13000617 	ldw	r12,24(r2)
{
	int i, j;

	// copy input to state
	for(i = 0; i < 16; i++)
		ctx->state[i & 0x03][i >> 2] = input[i];
 4023798:	d9000605 	stb	r4,24(sp)
 402379c:	dc400603 	ldbu	r17,24(sp)
	for(i = 0; i < 16; i++) {
		int x, y;

		x = i & 0x03;
		y = i >> 2;
		ctx->state[x][y] = ctx->state[x][y] ^
 40237a0:	40c00044 	addi	r3,r8,1
 40237a4:	41000084 	addi	r4,r8,2
{
	int i, j;

	// copy input to state
	for(i = 0; i < 16; i++)
		ctx->state[i & 0x03][i >> 2] = input[i];
 40237a8:	e4400045 	stb	r17,1(fp)
 40237ac:	28800143 	ldbu	r2,5(r5)
	for(i = 0; i < 16; i++) {
		int x, y;

		x = i & 0x03;
		y = i >> 2;
		ctx->state[x][y] = ctx->state[x][y] ^
 40237b0:	18c7883a 	add	r3,r3,r3
 40237b4:	18c7883a 	add	r3,r3,r3
{
	int i, j;

	// copy input to state
	for(i = 0; i < 16; i++)
		ctx->state[i & 0x03][i >> 2] = input[i];
 40237b8:	d8800705 	stb	r2,28(sp)
	for(i = 0; i < 16; i++) {
		int x, y;

		x = i & 0x03;
		y = i >> 2;
		ctx->state[x][y] = ctx->state[x][y] ^
 40237bc:	408000c4 	addi	r2,r8,3
{
	int i, j;

	// copy input to state
	for(i = 0; i < 16; i++)
		ctx->state[i & 0x03][i >> 2] = input[i];
 40237c0:	da000703 	ldbu	r8,28(sp)
	for(i = 0; i < 16; i++) {
		int x, y;

		x = i & 0x03;
		y = i >> 2;
		ctx->state[x][y] = ctx->state[x][y] ^
 40237c4:	1f07883a 	add	r3,r3,fp
 40237c8:	2109883a 	add	r4,r4,r4
{
	int i, j;

	// copy input to state
	for(i = 0; i < 16; i++)
		ctx->state[i & 0x03][i >> 2] = input[i];
 40237cc:	e2000145 	stb	r8,5(fp)
 40237d0:	2c400183 	ldbu	r17,6(r5)
	for(i = 0; i < 16; i++) {
		int x, y;

		x = i & 0x03;
		y = i >> 2;
		ctx->state[x][y] = ctx->state[x][y] ^
 40237d4:	61cef03a 	xor	r7,r12,r7
 40237d8:	64003fec 	andhi	r16,r12,255
{
	int i, j;

	// copy input to state
	for(i = 0; i < 16; i++)
		ctx->state[i & 0x03][i >> 2] = input[i];
 40237dc:	dc400805 	stb	r17,32(sp)
 40237e0:	e4400245 	stb	r17,9(fp)
 40237e4:	2a0001c3 	ldbu	r8,7(r5)
	for(i = 0; i < 16; i++) {
		int x, y;

		x = i & 0x03;
		y = i >> 2;
		ctx->state[x][y] = ctx->state[x][y] ^
 40237e8:	1085883a 	add	r2,r2,r2
 40237ec:	2109883a 	add	r4,r4,r4
{
	int i, j;

	// copy input to state
	for(i = 0; i < 16; i++)
		ctx->state[i & 0x03][i >> 2] = input[i];
 40237f0:	da000905 	stb	r8,36(sp)
 40237f4:	e2000345 	stb	r8,13(fp)
 40237f8:	2c400203 	ldbu	r17,8(r5)
	for(i = 0; i < 16; i++) {
		int x, y;

		x = i & 0x03;
		y = i >> 2;
		ctx->state[x][y] = ctx->state[x][y] ^
 40237fc:	2709883a 	add	r4,r4,fp
 4023800:	1085883a 	add	r2,r2,r2
{
	int i, j;

	// copy input to state
	for(i = 0; i < 16; i++)
		ctx->state[i & 0x03][i >> 2] = input[i];
 4023804:	dc400a05 	stb	r17,40(sp)
 4023808:	e4400085 	stb	r17,2(fp)
 402380c:	2a000243 	ldbu	r8,9(r5)
	for(i = 0; i < 16; i++) {
		int x, y;

		x = i & 0x03;
		y = i >> 2;
		ctx->state[x][y] = ctx->state[x][y] ^
 4023810:	1705883a 	add	r2,r2,fp
 4023814:	8020d43a 	srli	r16,r16,16
{
	int i, j;

	// copy input to state
	for(i = 0; i < 16; i++)
		ctx->state[i & 0x03][i >> 2] = input[i];
 4023818:	da000b05 	stb	r8,44(sp)
 402381c:	e2000185 	stb	r8,6(fp)
 4023820:	2c400283 	ldbu	r17,10(r5)
	for(i = 0; i < 16; i++) {
		int x, y;

		x = i & 0x03;
		y = i >> 2;
		ctx->state[x][y] = ctx->state[x][y] ^
 4023824:	623fc00c 	andi	r8,r12,65280
 4023828:	401ad23a 	srli	r13,r8,8
{
	int i, j;

	// copy input to state
	for(i = 0; i < 16; i++)
		ctx->state[i & 0x03][i >> 2] = input[i];
 402382c:	dc400c05 	stb	r17,48(sp)
 4023830:	e4400285 	stb	r17,10(fp)
 4023834:	2c4002c3 	ldbu	r17,11(r5)
	for(i = 0; i < 16; i++) {
		int x, y;

		x = i & 0x03;
		y = i >> 2;
		ctx->state[x][y] = ctx->state[x][y] ^
 4023838:	6adaf03a 	xor	r13,r13,r11
 402383c:	6018d63a 	srli	r12,r12,24
{
	int i, j;

	// copy input to state
	for(i = 0; i < 16; i++)
		ctx->state[i & 0x03][i >> 2] = input[i];
 4023840:	dc400d05 	stb	r17,52(sp)
 4023844:	e4400385 	stb	r17,14(fp)
 4023848:	2a000303 	ldbu	r8,12(r5)
	for(i = 0; i < 16; i++) {
		int x, y;

		x = i & 0x03;
		y = i >> 2;
		ctx->state[x][y] = ctx->state[x][y] ^
 402384c:	6258f03a 	xor	r12,r12,r9
 4023850:	12400617 	ldw	r9,24(r2)
{
	int i, j;

	// copy input to state
	for(i = 0; i < 16; i++)
		ctx->state[i & 0x03][i >> 2] = input[i];
 4023854:	da000e05 	stb	r8,56(sp)
 4023858:	e20000c5 	stb	r8,3(fp)
 402385c:	2c400343 	ldbu	r17,13(r5)
	for(i = 0; i < 16; i++) {
		int x, y;

		x = i & 0x03;
		y = i >> 2;
		ctx->state[x][y] = ctx->state[x][y] ^
 4023860:	db401415 	stw	r13,80(sp)
 4023864:	82a0f03a 	xor	r16,r16,r10
{
	int i, j;

	// copy input to state
	for(i = 0; i < 16; i++)
		ctx->state[i & 0x03][i >> 2] = input[i];
 4023868:	dc400f05 	stb	r17,60(sp)
 402386c:	e44001c5 	stb	r17,7(fp)
 4023870:	2a000383 	ldbu	r8,14(r5)

	aes_addroundkey(ctx, ctx->rounds);
	for(i = ctx->rounds-1; i >= 1; i--) {
 4023874:	db800415 	stw	r14,16(sp)
	for(i = 0; i < 16; i++) {
		int x, y;

		x = i & 0x03;
		y = i >> 2;
		ctx->state[x][y] = ctx->state[x][y] ^
 4023878:	4abfc00c 	andi	r10,r9,65280
{
	int i, j;

	// copy input to state
	for(i = 0; i < 16; i++)
		ctx->state[i & 0x03][i >> 2] = input[i];
 402387c:	da001005 	stb	r8,64(sp)
 4023880:	e20002c5 	stb	r8,11(fp)
 4023884:	294003c3 	ldbu	r5,15(r5)
	for(i = 0; i < 16; i++) {
		int x, y;

		x = i & 0x03;
		y = i >> 2;
		ctx->state[x][y] = ctx->state[x][y] ^
 4023888:	5014d23a 	srli	r10,r10,8
 402388c:	4ac03fec 	andhi	r11,r9,255
{
	int i, j;

	// copy input to state
	for(i = 0; i < 16; i++)
		ctx->state[i & 0x03][i >> 2] = input[i];
 4023890:	d9401105 	stb	r5,68(sp)
	for(i = 0; i < 16; i++) {
		int x, y;

		x = i & 0x03;
		y = i >> 2;
		ctx->state[x][y] = ctx->state[x][y] ^
 4023894:	19400617 	ldw	r5,24(r3)
 4023898:	e1c00005 	stb	r7,0(fp)
 402389c:	21c00617 	ldw	r7,24(r4)
 40238a0:	28ffc00c 	andi	r3,r5,65280
 40238a4:	28803fec 	andhi	r2,r5,255
 40238a8:	dc400703 	ldbu	r17,28(sp)
 40238ac:	da000803 	ldbu	r8,32(sp)
 40238b0:	1806d23a 	srli	r3,r3,8
 40238b4:	1004d43a 	srli	r2,r2,16
 40238b8:	3b803fec 	andhi	r14,r7,255
 40238bc:	393fc00c 	andi	r4,r7,65280
 40238c0:	701cd43a 	srli	r14,r14,16
 40238c4:	281ad63a 	srli	r13,r5,24
 40238c8:	1c46f03a 	xor	r3,r3,r17
 40238cc:	1204f03a 	xor	r2,r2,r8
 40238d0:	dc400903 	ldbu	r17,36(sp)
 40238d4:	da000b03 	ldbu	r8,44(sp)
 40238d8:	2008d23a 	srli	r4,r4,8
 40238dc:	db801515 	stw	r14,84(sp)
 40238e0:	6c5af03a 	xor	r13,r13,r17
 40238e4:	2208f03a 	xor	r4,r4,r8
 40238e8:	dc401517 	ldw	r17,84(sp)
 40238ec:	da000c03 	ldbu	r8,48(sp)
 40238f0:	381cd63a 	srli	r14,r7,24
 40238f4:	5816d43a 	srli	r11,r11,16
 40238f8:	8a2ef03a 	xor	r23,r17,r8
 40238fc:	dc400d03 	ldbu	r17,52(sp)
 4023900:	da000f03 	ldbu	r8,60(sp)
 4023904:	481ed63a 	srli	r15,r9,24
 4023908:	745cf03a 	xor	r14,r14,r17
 402390c:	dc401003 	ldbu	r17,64(sp)
 4023910:	5214f03a 	xor	r10,r10,r8
 4023914:	da001103 	ldbu	r8,68(sp)
 4023918:	5c56f03a 	xor	r11,r11,r17
 402391c:	dc400603 	ldbu	r17,24(sp)
 4023920:	7a1ef03a 	xor	r15,r15,r8
 4023924:	da000a03 	ldbu	r8,40(sp)
 4023928:	2c4af03a 	xor	r5,r5,r17
 402392c:	dc400e03 	ldbu	r17,56(sp)
 4023930:	3a0ef03a 	xor	r7,r7,r8
 4023934:	da001417 	ldw	r8,80(sp)
 4023938:	4c52f03a 	xor	r9,r9,r17
 402393c:	e2000105 	stb	r8,4(fp)
 4023940:	e4000205 	stb	r16,8(fp)
 4023944:	e3000305 	stb	r12,12(fp)
 4023948:	e1400045 	stb	r5,1(fp)
 402394c:	e0c00145 	stb	r3,5(fp)
 4023950:	e0800245 	stb	r2,9(fp)
 4023954:	e3400345 	stb	r13,13(fp)
 4023958:	e1c00085 	stb	r7,2(fp)
 402395c:	e1000185 	stb	r4,6(fp)
 4023960:	e5c00285 	stb	r23,10(fp)
 4023964:	e3800385 	stb	r14,14(fp)
 4023968:	e24000c5 	stb	r9,3(fp)
 402396c:	e28001c5 	stb	r10,7(fp)
 4023970:	e2c002c5 	stb	r11,11(fp)
 4023974:	e3c003c5 	stb	r15,15(fp)
	// copy input to state
	for(i = 0; i < 16; i++)
		ctx->state[i & 0x03][i >> 2] = input[i];

	aes_addroundkey(ctx, ctx->rounds);
	for(i = ctx->rounds-1; i >= 1; i--) {
 4023978:	dc400417 	ldw	r17,16(sp)

	memcpy(ctx->state, nstate, sizeof(ctx->state));
}

void aes_decrypt(aes_ctx_t *ctx, unsigned char input[16], unsigned char output[16])
{
 402397c:	d9800515 	stw	r6,20(sp)
	// copy input to state
	for(i = 0; i < 16; i++)
		ctx->state[i & 0x03][i >> 2] = input[i];

	aes_addroundkey(ctx, ctx->rounds);
	for(i = ctx->rounds-1; i >= 1; i--) {
 4023980:	0440e10e 	bge	zero,r17,4023d08 <aes_decrypt+0x5f0>
 4023984:	d8c01217 	ldw	r3,72(sp)
 4023988:	18bfff04 	addi	r2,r3,-4
 402398c:	1085883a 	add	r2,r2,r2
 4023990:	1085883a 	add	r2,r2,r2
 4023994:	1705883a 	add	r2,r2,fp
 4023998:	15c00904 	addi	r23,r2,36
	for(i = 0; i < 16; i++) {
		int x, y;

		x = i & 0x03;
		y = i >> 2;
		nstate[x][(y+x) & 0x03] = ctx->state[x][y];
 402399c:	e0800003 	ldbu	r2,0(fp)
 40239a0:	e0c00043 	ldbu	r3,1(fp)
 40239a4:	e1000083 	ldbu	r4,2(fp)
 40239a8:	e14000c3 	ldbu	r5,3(fp)
 40239ac:	d8800005 	stb	r2,0(sp)
 40239b0:	d8c00045 	stb	r3,1(sp)
 40239b4:	d9000085 	stb	r4,2(sp)
 40239b8:	d94000c5 	stb	r5,3(sp)
 40239bc:	e0800103 	ldbu	r2,4(fp)
 40239c0:	e0c00203 	ldbu	r3,8(fp)
 40239c4:	e1000303 	ldbu	r4,12(fp)
 40239c8:	e1400143 	ldbu	r5,5(fp)
 40239cc:	e1800243 	ldbu	r6,9(fp)
 40239d0:	e1c00343 	ldbu	r7,13(fp)
 40239d4:	e2000183 	ldbu	r8,6(fp)
 40239d8:	e2400283 	ldbu	r9,10(fp)
 40239dc:	e2800383 	ldbu	r10,14(fp)
 40239e0:	e2c001c3 	ldbu	r11,7(fp)
 40239e4:	e30002c3 	ldbu	r12,11(fp)
 40239e8:	e34003c3 	ldbu	r13,15(fp)
 40239ec:	d8800145 	stb	r2,5(sp)
	}

	memcpy(ctx->state, nstate, sizeof(ctx->state));
 40239f0:	d8800017 	ldw	r2,0(sp)
	for(i = 0; i < 16; i++) {
		int x, y;

		x = i & 0x03;
		y = i >> 2;
		nstate[x][(y+x) & 0x03] = ctx->state[x][y];
 40239f4:	d8c00285 	stb	r3,10(sp)
 40239f8:	d90003c5 	stb	r4,15(sp)
 40239fc:	d9400185 	stb	r5,6(sp)
 4023a00:	d98002c5 	stb	r6,11(sp)
 4023a04:	d9c00305 	stb	r7,12(sp)
 4023a08:	da0001c5 	stb	r8,7(sp)
 4023a0c:	da400205 	stb	r9,8(sp)
 4023a10:	da800345 	stb	r10,13(sp)
 4023a14:	dac00105 	stb	r11,4(sp)
 4023a18:	db000245 	stb	r12,9(sp)
 4023a1c:	db400385 	stb	r13,14(sp)
	}

	memcpy(ctx->state, nstate, sizeof(ctx->state));
 4023a20:	e0800015 	stw	r2,0(fp)
 4023a24:	d9000217 	ldw	r4,8(sp)
 4023a28:	d9400317 	ldw	r5,12(sp)
 4023a2c:	d8800117 	ldw	r2,4(sp)
	for(i = 0; i < 16; i++) {
		int x, y;

		x = i & 0x03;
		y = i >> 2;
		ctx->state[x][y] = g_aes_isbox[ctx->state[x][y]];
 4023a30:	e0c00003 	ldbu	r3,0(fp)
 4023a34:	044100f4 	movhi	r17,1027
 4023a38:	8c447904 	addi	r17,r17,4580
		x = i & 0x03;
		y = i >> 2;
		nstate[x][(y+x) & 0x03] = ctx->state[x][y];
	}

	memcpy(ctx->state, nstate, sizeof(ctx->state));
 4023a3c:	e0800115 	stw	r2,4(fp)
 4023a40:	e1000215 	stw	r4,8(fp)
 4023a44:	e1400315 	stw	r5,12(fp)
	for(i = 0; i < 16; i++) {
		int x, y;

		x = i & 0x03;
		y = i >> 2;
		ctx->state[x][y] = g_aes_isbox[ctx->state[x][y]];
 4023a48:	1c47883a 	add	r3,r3,r17
 4023a4c:	18c00003 	ldbu	r3,0(r3)
 4023a50:	d8c01705 	stb	r3,92(sp)
 4023a54:	d9001703 	ldbu	r4,92(sp)
 4023a58:	e0800103 	ldbu	r2,4(fp)
 4023a5c:	e0c00203 	ldbu	r3,8(fp)
 4023a60:	e1000005 	stb	r4,0(fp)
 4023a64:	1445883a 	add	r2,r2,r17
 4023a68:	10800003 	ldbu	r2,0(r2)
 4023a6c:	1c47883a 	add	r3,r3,r17
 4023a70:	010100f4 	movhi	r4,1027
 4023a74:	21047904 	addi	r4,r4,4580
 4023a78:	d8801805 	stb	r2,96(sp)
 4023a7c:	d9401803 	ldbu	r5,96(sp)
 4023a80:	e0800303 	ldbu	r2,12(fp)
 4023a84:	e1400105 	stb	r5,4(fp)
 4023a88:	18c00003 	ldbu	r3,0(r3)
 4023a8c:	1445883a 	add	r2,r2,r17
 4023a90:	d8c01905 	stb	r3,100(sp)
 4023a94:	d9801903 	ldbu	r6,100(sp)
 4023a98:	e0c00043 	ldbu	r3,1(fp)
 4023a9c:	e1800205 	stb	r6,8(fp)
 4023aa0:	12000003 	ldbu	r8,0(r2)
 4023aa4:	1c47883a 	add	r3,r3,r17
 4023aa8:	e0800143 	ldbu	r2,5(fp)
 4023aac:	e2000305 	stb	r8,12(fp)
 4023ab0:	18c00003 	ldbu	r3,0(r3)
 4023ab4:	1445883a 	add	r2,r2,r17
 4023ab8:	018100f4 	movhi	r6,1027
 4023abc:	31847904 	addi	r6,r6,4580
 4023ac0:	d8c01a05 	stb	r3,104(sp)
 4023ac4:	d9c01a03 	ldbu	r7,104(sp)
 4023ac8:	e0c00243 	ldbu	r3,9(fp)
 4023acc:	e1c00045 	stb	r7,1(fp)
 4023ad0:	14400003 	ldbu	r17,0(r2)
 4023ad4:	008100f4 	movhi	r2,1027
 4023ad8:	10847904 	addi	r2,r2,4580
 4023adc:	1887883a 	add	r3,r3,r2
 4023ae0:	e0800343 	ldbu	r2,13(fp)
 4023ae4:	e4400145 	stb	r17,5(fp)
 4023ae8:	1c800003 	ldbu	r18,0(r3)
 4023aec:	00c100f4 	movhi	r3,1027
 4023af0:	18c47904 	addi	r3,r3,4580
 4023af4:	10c5883a 	add	r2,r2,r3
 4023af8:	e4800245 	stb	r18,9(fp)
 4023afc:	15000003 	ldbu	r20,0(r2)
 4023b00:	e0c00083 	ldbu	r3,2(fp)
 4023b04:	e0800183 	ldbu	r2,6(fp)
 4023b08:	e5000345 	stb	r20,13(fp)
	// copy input to state
	for(i = 0; i < 16; i++)
		ctx->state[i & 0x03][i >> 2] = input[i];

	aes_addroundkey(ctx, ctx->rounds);
	for(i = ctx->rounds-1; i >= 1; i--) {
 4023b0c:	d9400417 	ldw	r5,16(sp)
	for(i = 0; i < 16; i++) {
		int x, y;

		x = i & 0x03;
		y = i >> 2;
		ctx->state[x][y] = g_aes_isbox[ctx->state[x][y]];
 4023b10:	1907883a 	add	r3,r3,r4
 4023b14:	1cc00003 	ldbu	r19,0(r3)
	// copy input to state
	for(i = 0; i < 16; i++)
		ctx->state[i & 0x03][i >> 2] = input[i];

	aes_addroundkey(ctx, ctx->rounds);
	for(i = ctx->rounds-1; i >= 1; i--) {
 4023b18:	297fffc4 	addi	r5,r5,-1
 4023b1c:	d9400415 	stw	r5,16(sp)
	for(i = 0; i < 16; i++) {
		int x, y;

		x = i & 0x03;
		y = i >> 2;
		ctx->state[x][y] = g_aes_isbox[ctx->state[x][y]];
 4023b20:	e4c00085 	stb	r19,2(fp)
 4023b24:	1105883a 	add	r2,r2,r4
 4023b28:	17c00003 	ldbu	ra,0(r2)
 4023b2c:	e0800283 	ldbu	r2,10(fp)
 4023b30:	e0c00383 	ldbu	r3,14(fp)
 4023b34:	e7c00185 	stb	ra,6(fp)
 4023b38:	1185883a 	add	r2,r2,r6
 4023b3c:	10800003 	ldbu	r2,0(r2)
 4023b40:	e14000c3 	ldbu	r5,3(fp)
 4023b44:	1987883a 	add	r3,r3,r6
 4023b48:	d8801b05 	stb	r2,108(sp)
 4023b4c:	e0800285 	stb	r2,10(fp)
 4023b50:	18c00003 	ldbu	r3,0(r3)
 4023b54:	298b883a 	add	r5,r5,r6
	for(i = 0; i < 16; i++) {
		int x, y;

		x = i & 0x03;
		y = i >> 2;
		ctx->state[x][y] = ctx->state[x][y] ^
 4023b58:	bafffe17 	ldw	r11,-8(r23)
	for(i = 0; i < 16; i++) {
		int x, y;

		x = i & 0x03;
		y = i >> 2;
		ctx->state[x][y] = g_aes_isbox[ctx->state[x][y]];
 4023b5c:	d8c01c05 	stb	r3,112(sp)
 4023b60:	d9c01c03 	ldbu	r7,112(sp)
 4023b64:	e08001c3 	ldbu	r2,7(fp)
 4023b68:	e0c002c3 	ldbu	r3,11(fp)
 4023b6c:	e1c00385 	stb	r7,14(fp)
 4023b70:	2d400003 	ldbu	r21,0(r5)
 4023b74:	1185883a 	add	r2,r2,r6
 4023b78:	1987883a 	add	r3,r3,r6
 4023b7c:	e54000c5 	stb	r21,3(fp)
 4023b80:	15800003 	ldbu	r22,0(r2)
	for(i = 0; i < 16; i++) {
		int x, y;

		x = i & 0x03;
		y = i >> 2;
		ctx->state[x][y] = ctx->state[x][y] ^
 4023b84:	b9bffd17 	ldw	r6,-12(r23)
 4023b88:	bbbfff17 	ldw	r14,-4(r23)
	for(i = 0; i < 16; i++) {
		int x, y;

		x = i & 0x03;
		y = i >> 2;
		ctx->state[x][y] = g_aes_isbox[ctx->state[x][y]];
 4023b8c:	e58001c5 	stb	r22,7(fp)
 4023b90:	18c00003 	ldbu	r3,0(r3)
	for(i = 0; i < 16; i++) {
		int x, y;

		x = i & 0x03;
		y = i >> 2;
		ctx->state[x][y] = ctx->state[x][y] ^
 4023b94:	31ffc00c 	andi	r7,r6,65280
 4023b98:	380ed23a 	srli	r7,r7,8
	for(i = 0; i < 16; i++) {
		int x, y;

		x = i & 0x03;
		y = i >> 2;
		ctx->state[x][y] = g_aes_isbox[ctx->state[x][y]];
 4023b9c:	d8c01d05 	stb	r3,116(sp)
	for(i = 0; i < 16; i++) {
		int x, y;

		x = i & 0x03;
		y = i >> 2;
		ctx->state[x][y] = ctx->state[x][y] ^
 4023ba0:	30c03fec 	andhi	r3,r6,255
	for(i = 0; i < 16; i++) {
		int x, y;

		x = i & 0x03;
		y = i >> 2;
		ctx->state[x][y] = g_aes_isbox[ctx->state[x][y]];
 4023ba4:	e08003c3 	ldbu	r2,15(fp)
	for(i = 0; i < 16; i++) {
		int x, y;

		x = i & 0x03;
		y = i >> 2;
		ctx->state[x][y] = ctx->state[x][y] ^
 4023ba8:	d8c01f15 	stw	r3,124(sp)
	for(i = 0; i < 16; i++) {
		int x, y;

		x = i & 0x03;
		y = i >> 2;
		ctx->state[x][y] = g_aes_isbox[ctx->state[x][y]];
 4023bac:	d9401d03 	ldbu	r5,116(sp)
 4023bb0:	00c100f4 	movhi	r3,1027
 4023bb4:	18c47904 	addi	r3,r3,4580
 4023bb8:	10c5883a 	add	r2,r2,r3
 4023bbc:	e14002c5 	stb	r5,11(fp)
	for(i = 0; i < 16; i++) {
		int x, y;

		x = i & 0x03;
		y = i >> 2;
		ctx->state[x][y] = ctx->state[x][y] ^
 4023bc0:	d9401f17 	ldw	r5,124(sp)
	for(i = 0; i < 16; i++) {
		int x, y;

		x = i & 0x03;
		y = i >> 2;
		ctx->state[x][y] = g_aes_isbox[ctx->state[x][y]];
 4023bc4:	d8803815 	stw	r2,224(sp)
	for(i = 0; i < 16; i++) {
		int x, y;

		x = i & 0x03;
		y = i >> 2;
		ctx->state[x][y] = ctx->state[x][y] ^
 4023bc8:	7004d63a 	srli	r2,r14,24
 4023bcc:	280ad43a 	srli	r5,r5,16
 4023bd0:	5a7fc00c 	andi	r9,r11,65280
 4023bd4:	d8802215 	stw	r2,136(sp)
 4023bd8:	d9402015 	stw	r5,128(sp)
 4023bdc:	b9400017 	ldw	r5,0(r23)
	for(i = 0; i < 16; i++) {
		int x, y;

		x = i & 0x03;
		y = i >> 2;
		ctx->state[x][y] = g_aes_isbox[ctx->state[x][y]];
 4023be0:	d8803817 	ldw	r2,224(sp)
	for(i = 0; i < 16; i++) {
		int x, y;

		x = i & 0x03;
		y = i >> 2;
		ctx->state[x][y] = ctx->state[x][y] ^
 4023be4:	301ed63a 	srli	r15,r6,24
 4023be8:	28ffc00c 	andi	r3,r5,65280
 4023bec:	1806d23a 	srli	r3,r3,8
	for(i = 0; i < 16; i++) {
		int x, y;

		x = i & 0x03;
		y = i >> 2;
		ctx->state[x][y] = g_aes_isbox[ctx->state[x][y]];
 4023bf0:	10800003 	ldbu	r2,0(r2)
	for(i = 0; i < 16; i++) {
		int x, y;

		x = i & 0x03;
		y = i >> 2;
		ctx->state[x][y] = ctx->state[x][y] ^
 4023bf4:	4812d23a 	srli	r9,r9,8
 4023bf8:	d8c03915 	stw	r3,228(sp)
 4023bfc:	b8c00017 	ldw	r3,0(r23)
	for(i = 0; i < 16; i++) {
		int x, y;

		x = i & 0x03;
		y = i >> 2;
		ctx->state[x][y] = g_aes_isbox[ctx->state[x][y]];
 4023c00:	d8801e05 	stb	r2,120(sp)
	for(i = 0; i < 16; i++) {
		int x, y;

		x = i & 0x03;
		y = i >> 2;
		ctx->state[x][y] = ctx->state[x][y] ^
 4023c04:	d8801803 	ldbu	r2,96(sp)
 4023c08:	1806d63a 	srli	r3,r3,24
 4023c0c:	7a1ef03a 	xor	r15,r15,r8
 4023c10:	388ef03a 	xor	r7,r7,r2
 4023c14:	d8c03815 	stw	r3,224(sp)
 4023c18:	d8801903 	ldbu	r2,100(sp)
 4023c1c:	d8c02017 	ldw	r3,128(sp)
 4023c20:	da002217 	ldw	r8,136(sp)
 4023c24:	4c52f03a 	xor	r9,r9,r17
 4023c28:	dc401c03 	ldbu	r17,112(sp)
 4023c2c:	1886f03a 	xor	r3,r3,r2
 4023c30:	73403fec 	andhi	r13,r14,255
 4023c34:	d8801703 	ldbu	r2,92(sp)
 4023c38:	d8c02115 	stw	r3,132(sp)
 4023c3c:	681ad43a 	srli	r13,r13,16
 4023c40:	d8c01b03 	ldbu	r3,108(sp)
 4023c44:	4450f03a 	xor	r8,r8,r17
 4023c48:	da002315 	stw	r8,140(sp)
 4023c4c:	308cf03a 	xor	r6,r6,r2
 4023c50:	5a803fec 	andhi	r10,r11,255
 4023c54:	68daf03a 	xor	r13,r13,r3
 4023c58:	733fc00c 	andi	r12,r14,65280
 4023c5c:	d8c01a03 	ldbu	r3,104(sp)
 4023c60:	5820d63a 	srli	r16,r11,24
 4023c64:	e1c00105 	stb	r7,4(fp)
 4023c68:	e1800005 	stb	r6,0(fp)
 4023c6c:	5014d43a 	srli	r10,r10,16
 4023c70:	d9802117 	ldw	r6,132(sp)
 4023c74:	6018d23a 	srli	r12,r12,8
 4023c78:	58d6f03a 	xor	r11,r11,r3
 4023c7c:	5494f03a 	xor	r10,r10,r18
 4023c80:	74dcf03a 	xor	r14,r14,r19
 4023c84:	8520f03a 	xor	r16,r16,r20
 4023c88:	67d8f03a 	xor	r12,r12,ra
 4023c8c:	e1800205 	stb	r6,8(fp)
 4023c90:	e3c00305 	stb	r15,12(fp)
 4023c94:	e2c00045 	stb	r11,1(fp)
 4023c98:	e2400145 	stb	r9,5(fp)
 4023c9c:	e2800245 	stb	r10,9(fp)
 4023ca0:	e3800085 	stb	r14,2(fp)
 4023ca4:	e4000345 	stb	r16,13(fp)
 4023ca8:	e3000185 	stb	r12,6(fp)
 4023cac:	e3400285 	stb	r13,10(fp)
 4023cb0:	e2000385 	stb	r8,14(fp)
 4023cb4:	d9c03917 	ldw	r7,228(sp)
 4023cb8:	29403fec 	andhi	r5,r5,255
 4023cbc:	da001d03 	ldbu	r8,116(sp)
 4023cc0:	3d86f03a 	xor	r3,r7,r22
 4023cc4:	b9c00017 	ldw	r7,0(r23)
 4023cc8:	dc403817 	ldw	r17,224(sp)
 4023ccc:	d9801e03 	ldbu	r6,120(sp)
 4023cd0:	280ad43a 	srli	r5,r5,16
 4023cd4:	3d6af03a 	xor	r21,r7,r21
 4023cd8:	dd402415 	stw	r21,144(sp)
 4023cdc:	2a0af03a 	xor	r5,r5,r8
 4023ce0:	8984f03a 	xor	r2,r17,r6
	aes_addroundkey(ctx, ctx->rounds);
	for(i = ctx->rounds-1; i >= 1; i--) {
		aes_invshiftrows(ctx);
		aes_invsubbytes(ctx);
		aes_addroundkey(ctx, i);
		aes_invmixcolumns(ctx);
 4023ce4:	e009883a 	mov	r4,fp
	for(i = 0; i < 16; i++) {
		int x, y;

		x = i & 0x03;
		y = i >> 2;
		ctx->state[x][y] = ctx->state[x][y] ^
 4023ce8:	e54000c5 	stb	r21,3(fp)
 4023cec:	e0c001c5 	stb	r3,7(fp)
 4023cf0:	e14002c5 	stb	r5,11(fp)
 4023cf4:	e08003c5 	stb	r2,15(fp)
	aes_addroundkey(ctx, ctx->rounds);
	for(i = ctx->rounds-1; i >= 1; i--) {
		aes_invshiftrows(ctx);
		aes_invsubbytes(ctx);
		aes_addroundkey(ctx, i);
		aes_invmixcolumns(ctx);
 4023cf8:	402135c0 	call	402135c <aes_invmixcolumns>
	// copy input to state
	for(i = 0; i < 16; i++)
		ctx->state[i & 0x03][i >> 2] = input[i];

	aes_addroundkey(ctx, ctx->rounds);
	for(i = ctx->rounds-1; i >= 1; i--) {
 4023cfc:	da000417 	ldw	r8,16(sp)
 4023d00:	bdfffc04 	addi	r23,r23,-16
 4023d04:	023f2516 	blt	zero,r8,402399c <aes_decrypt+0x284>
	for(i = 0; i < 16; i++) {
		int x, y;

		x = i & 0x03;
		y = i >> 2;
		nstate[x][(y+x) & 0x03] = ctx->state[x][y];
 4023d08:	e0800003 	ldbu	r2,0(fp)
 4023d0c:	e0c00043 	ldbu	r3,1(fp)
 4023d10:	e1000083 	ldbu	r4,2(fp)
 4023d14:	e14000c3 	ldbu	r5,3(fp)
 4023d18:	d8800005 	stb	r2,0(sp)
 4023d1c:	d8c00045 	stb	r3,1(sp)
